
ChargerII.elf:     file format elf32-avr

Sections:
Idx Name          Size      VMA       LMA       File off  Algn
  0 .data         000000b6  00800100  00001fb4  00002048  2**0
                  CONTENTS, ALLOC, LOAD, DATA
  1 .text         00001fb4  00000000  00000000  00000094  2**1
                  CONTENTS, ALLOC, LOAD, READONLY, CODE
  2 .bss          000000f0  008001b6  008001b6  000020fe  2**0
                  ALLOC
  3 .debug_aranges 00000180  00000000  00000000  000020fe  2**0
                  CONTENTS, READONLY, DEBUGGING
  4 .debug_pubnames 000009bf  00000000  00000000  0000227e  2**0
                  CONTENTS, READONLY, DEBUGGING
  5 .debug_info   00002f62  00000000  00000000  00002c3d  2**0
                  CONTENTS, READONLY, DEBUGGING
  6 .debug_abbrev 00000f1d  00000000  00000000  00005b9f  2**0
                  CONTENTS, READONLY, DEBUGGING
  7 .debug_line   000026c6  00000000  00000000  00006abc  2**0
                  CONTENTS, READONLY, DEBUGGING
  8 .debug_frame  00000710  00000000  00000000  00009184  2**2
                  CONTENTS, READONLY, DEBUGGING
  9 .debug_str    00000cfe  00000000  00000000  00009894  2**0
                  CONTENTS, READONLY, DEBUGGING
 10 .debug_loc    000011f8  00000000  00000000  0000a592  2**0
                  CONTENTS, READONLY, DEBUGGING
 11 .debug_ranges 000000e8  00000000  00000000  0000b78a  2**0
                  CONTENTS, READONLY, DEBUGGING

Disassembly of section .text:

00000000 <__vectors>:
       0:	22 c0       	rjmp	.+68     	; 0x46 <__ctors_end>
       2:	3c c0       	rjmp	.+120    	; 0x7c <__bad_interrupt>
       4:	3b c0       	rjmp	.+118    	; 0x7c <__bad_interrupt>
       6:	3a c0       	rjmp	.+116    	; 0x7c <__bad_interrupt>
       8:	39 c0       	rjmp	.+114    	; 0x7c <__bad_interrupt>
       a:	38 c0       	rjmp	.+112    	; 0x7c <__bad_interrupt>
       c:	37 c0       	rjmp	.+110    	; 0x7c <__bad_interrupt>
       e:	36 c0       	rjmp	.+108    	; 0x7c <__bad_interrupt>
      10:	35 c0       	rjmp	.+106    	; 0x7c <__bad_interrupt>
      12:	34 c0       	rjmp	.+104    	; 0x7c <__bad_interrupt>
      14:	33 c0       	rjmp	.+102    	; 0x7c <__bad_interrupt>
      16:	32 c0       	rjmp	.+100    	; 0x7c <__bad_interrupt>
      18:	31 c0       	rjmp	.+98     	; 0x7c <__bad_interrupt>
      1a:	d5 ca       	rjmp	.-2646   	; 0xfffff5c6 <__eeprom_end+0xff7ef5c6>
      1c:	2f c0       	rjmp	.+94     	; 0x7c <__bad_interrupt>
      1e:	2e c0       	rjmp	.+92     	; 0x7c <__bad_interrupt>
      20:	2d c0       	rjmp	.+90     	; 0x7c <__bad_interrupt>
      22:	2c c0       	rjmp	.+88     	; 0x7c <__bad_interrupt>
      24:	3a c6       	rjmp	.+3188   	; 0xc9a <__vector_18>
      26:	2a c0       	rjmp	.+84     	; 0x7c <__bad_interrupt>
      28:	88 c6       	rjmp	.+3344   	; 0xd3a <__vector_20>
      2a:	28 c0       	rjmp	.+80     	; 0x7c <__bad_interrupt>
      2c:	27 c0       	rjmp	.+78     	; 0x7c <__bad_interrupt>
      2e:	26 c0       	rjmp	.+76     	; 0x7c <__bad_interrupt>
      30:	25 c0       	rjmp	.+74     	; 0x7c <__bad_interrupt>
      32:	24 c0       	rjmp	.+72     	; 0x7c <__bad_interrupt>

00000034 <HexChars>:
      34:	30 31 32 33 34 35 36 37 38 39 41 42 43 44 45 46     0123456789ABCDEF
	...

00000046 <__ctors_end>:
      46:	11 24       	eor	r1, r1
      48:	1f be       	out	0x3f, r1	; 63
      4a:	cf ef       	ldi	r28, 0xFF	; 255
      4c:	d4 e0       	ldi	r29, 0x04	; 4
      4e:	de bf       	out	0x3e, r29	; 62
      50:	cd bf       	out	0x3d, r28	; 61

00000052 <__do_copy_data>:
      52:	11 e0       	ldi	r17, 0x01	; 1
      54:	a0 e0       	ldi	r26, 0x00	; 0
      56:	b1 e0       	ldi	r27, 0x01	; 1
      58:	e4 eb       	ldi	r30, 0xB4	; 180
      5a:	ff e1       	ldi	r31, 0x1F	; 31
      5c:	02 c0       	rjmp	.+4      	; 0x62 <.do_copy_data_start>

0000005e <.do_copy_data_loop>:
      5e:	05 90       	lpm	r0, Z+
      60:	0d 92       	st	X+, r0

00000062 <.do_copy_data_start>:
      62:	a6 3b       	cpi	r26, 0xB6	; 182
      64:	b1 07       	cpc	r27, r17
      66:	d9 f7       	brne	.-10     	; 0x5e <.do_copy_data_loop>

00000068 <__do_clear_bss>:
      68:	12 e0       	ldi	r17, 0x02	; 2
      6a:	a6 eb       	ldi	r26, 0xB6	; 182
      6c:	b1 e0       	ldi	r27, 0x01	; 1
      6e:	01 c0       	rjmp	.+2      	; 0x72 <.do_clear_bss_start>

00000070 <.do_clear_bss_loop>:
      70:	1d 92       	st	X+, r1

00000072 <.do_clear_bss_start>:
      72:	a6 3a       	cpi	r26, 0xA6	; 166
      74:	b1 07       	cpc	r27, r17
      76:	e1 f7       	brne	.-8      	; 0x70 <.do_clear_bss_loop>
      78:	33 de       	rcall	.-922    	; 0xfffffce0 <__eeprom_end+0xff7efce0>
      7a:	9a cf       	rjmp	.-204    	; 0xffffffb0 <__eeprom_end+0xff7effb0>

0000007c <__bad_interrupt>:
      7c:	c1 cf       	rjmp	.-126    	; 0x0 <__vectors>

0000007e <delay>:
void delay(unsigned short us) 
{
	unsigned short delay_loops;
	register unsigned short i;

	delay_loops = (us+3)/6*CYCLES_PER_US; // +3 for rounding up (dirty) 
      7e:	03 96       	adiw	r24, 0x03	; 3
      80:	66 e0       	ldi	r22, 0x06	; 6
      82:	70 e0       	ldi	r23, 0x00	; 0
      84:	44 df       	rcall	.-376    	; 0xffffff0e <__eeprom_end+0xff7eff0e>
      86:	80 e0       	ldi	r24, 0x00	; 0
      88:	90 e0       	ldi	r25, 0x00	; 0
      8a:	66 0f       	add	r22, r22
      8c:	77 1f       	adc	r23, r23
      8e:	88 1f       	adc	r24, r24
      90:	99 1f       	adc	r25, r25
      92:	66 0f       	add	r22, r22
      94:	77 1f       	adc	r23, r23
      96:	88 1f       	adc	r24, r24
      98:	99 1f       	adc	r25, r25
      9a:	66 0f       	add	r22, r22
      9c:	77 1f       	adc	r23, r23
      9e:	88 1f       	adc	r24, r24
      a0:	99 1f       	adc	r25, r25
      a2:	cb 01       	movw	r24, r22

	// one loop takes 5 cpu cycles 
	for (i=0; i < delay_loops; i++){
      a4:	67 2b       	or	r22, r23
      a6:	41 f0       	breq	.+16     	; 0xb8 <delay+0x3a>
      a8:	20 e0       	ldi	r18, 0x00	; 0
      aa:	30 e0       	ldi	r19, 0x00	; 0
  wdt_reset();
      ac:	a8 95       	wdr
	register unsigned short i;

	delay_loops = (us+3)/6*CYCLES_PER_US; // +3 for rounding up (dirty) 

	// one loop takes 5 cpu cycles 
	for (i=0; i < delay_loops; i++){
      ae:	2f 5f       	subi	r18, 0xFF	; 255
      b0:	3f 4f       	sbci	r19, 0xFF	; 255
      b2:	28 17       	cp	r18, r24
      b4:	39 07       	cpc	r19, r25
      b6:	d0 f3       	brcs	.-12     	; 0xac <delay+0x2e>
      b8:	08 95       	ret

000000ba <Wait>:

//**************************************************
// Wait routine. Wait Time in Milliseconds.
//**************************************************
void Wait(u16 waittime)
{
      ba:	0f 93       	push	r16
      bc:	1f 93       	push	r17
      be:	cf 93       	push	r28
      c0:	df 93       	push	r29
      c2:	8c 01       	movw	r16, r24
u16 i;

  for(i=0;i< waittime;i++)
      c4:	00 97       	sbiw	r24, 0x00	; 0
      c6:	49 f0       	breq	.+18     	; 0xda <Wait+0x20>
      c8:	c0 e0       	ldi	r28, 0x00	; 0
      ca:	d0 e0       	ldi	r29, 0x00	; 0
   delay(100);
      cc:	84 e6       	ldi	r24, 0x64	; 100
      ce:	90 e0       	ldi	r25, 0x00	; 0
      d0:	d6 df       	rcall	.-84     	; 0x7e <delay>
//**************************************************
void Wait(u16 waittime)
{
u16 i;

  for(i=0;i< waittime;i++)
      d2:	21 96       	adiw	r28, 0x01	; 1
      d4:	c0 17       	cp	r28, r16
      d6:	d1 07       	cpc	r29, r17
      d8:	c8 f3       	brcs	.-14     	; 0xcc <Wait+0x12>
   delay(100);
}
      da:	df 91       	pop	r29
      dc:	cf 91       	pop	r28
      de:	1f 91       	pop	r17
      e0:	0f 91       	pop	r16
      e2:	08 95       	ret

000000e4 <EEPROM_INT_write>:
//************************************************************************************************************

  void EEPROM_INT_write(u16 uiAddress, u08 ucData)
  {
    /* Wait for completion of previous write */
    while(EECR & (1<<EEPE))
      e4:	f9 99       	sbic	0x1f, 1	; 31
      e6:	fe cf       	rjmp	.-4      	; 0xe4 <EEPROM_INT_write>
    ;
    /* Set up address and Data Registers */
    EEAR = uiAddress;
      e8:	92 bd       	out	0x22, r25	; 34
      ea:	81 bd       	out	0x21, r24	; 33
    EEDR = ucData;
      ec:	60 bd       	out	0x20, r22	; 32
    /* Write logical one to EEMPE */
    EECR |= (1<<EEMPE);
      ee:	fa 9a       	sbi	0x1f, 2	; 31
    /* Start eeprom write by setting EEPE */
    EECR |= (1<<EEPE);
      f0:	f9 9a       	sbi	0x1f, 1	; 31
  }
      f2:	08 95       	ret

000000f4 <EEPROM_INT_read>:
  
  
  u08 EEPROM_INT_read(u16 uiAddress)
  {
    /* Wait for completion of previous write */
    while(EECR & (1<<EEPE))
      f4:	f9 99       	sbic	0x1f, 1	; 31
      f6:	fe cf       	rjmp	.-4      	; 0xf4 <EEPROM_INT_read>
    ;
    /* Set up address register */
    EEAR = uiAddress;
      f8:	92 bd       	out	0x22, r25	; 34
      fa:	81 bd       	out	0x21, r24	; 33
    /* Start eeprom read by writing EERE */
    EECR |= (1<<EERE);
      fc:	f8 9a       	sbi	0x1f, 0	; 31
    /* Return data from Data Register */
  return EEDR;
      fe:	80 b5       	in	r24, 0x20	; 32
  }
     100:	08 95       	ret

00000102 <lcdprint_dec_u16>:

//***************************************************
// void lcdprint_dec_u16(u08x, u08y, u16 data)
//***************************************************
void lcdprint_dec_u16(u16 data)
{
     102:	0f 93       	push	r16
     104:	1f 93       	push	r17
     106:	8c 01       	movw	r16, r24
  // Set all output of the rprintf routine to the LCD screen
	rprintfInit(lcdDataWrite);		
     108:	88 e9       	ldi	r24, 0x98	; 152
     10a:	93 e0       	ldi	r25, 0x03	; 3
     10c:	bd d4       	rcall	.+2426   	; 0xa88 <rprintfInit>
  rprintf_dec_u16(data);    
     10e:	c8 01       	movw	r24, r16
     110:	0e d5       	rcall	.+2588   	; 0xb2e <rprintf_dec_u16>
  
  // Set all output of the rprintf routine to the Uart
	rprintfInit(uartSendChar);		  
     112:	82 e2       	ldi	r24, 0x22	; 34
     114:	97 e0       	ldi	r25, 0x07	; 7
     116:	b8 d4       	rcall	.+2416   	; 0xa88 <rprintfInit>
}
     118:	1f 91       	pop	r17
     11a:	0f 91       	pop	r16
     11c:	08 95       	ret

0000011e <lcdprint_dec_u08>:

//***************************************************
// void lcdprint_dec_u08(u08x, u08y, u08 data)
//***************************************************
void lcdprint_dec_u08(u08 data,u08 leading_zero_suppresion)
{
     11e:	0f 93       	push	r16
     120:	1f 93       	push	r17
     122:	18 2f       	mov	r17, r24
     124:	06 2f       	mov	r16, r22
  // Set all output of the rprintf routine to the LCD screen
	rprintfInit(lcdDataWrite);		
     126:	88 e9       	ldi	r24, 0x98	; 152
     128:	93 e0       	ldi	r25, 0x03	; 3
     12a:	ae d4       	rcall	.+2396   	; 0xa88 <rprintfInit>
  rprintf_dec_u08(data,leading_zero_suppresion);    
     12c:	81 2f       	mov	r24, r17
     12e:	60 2f       	mov	r22, r16
     130:	65 d5       	rcall	.+2762   	; 0xbfc <rprintf_dec_u08>
  
  // Set all output of the rprintf routine to the Uart
	rprintfInit(uartSendChar);		  
     132:	82 e2       	ldi	r24, 0x22	; 34
     134:	97 e0       	ldi	r25, 0x07	; 7
     136:	a8 d4       	rcall	.+2384   	; 0xa88 <rprintfInit>
}
     138:	1f 91       	pop	r17
     13a:	0f 91       	pop	r16
     13c:	08 95       	ret

0000013e <lcdprint_hex_u16>:

//***************************************************
// void lcdprint_hex_u16(u08x, u08y, u16 data)
//***************************************************
void lcdprint_hex_u16(u16 data)
{
     13e:	0f 93       	push	r16
     140:	1f 93       	push	r17
     142:	8c 01       	movw	r16, r24
  // Set all output of the rprintf routine to the LCD screen
	rprintfInit(lcdDataWrite);		
     144:	88 e9       	ldi	r24, 0x98	; 152
     146:	93 e0       	ldi	r25, 0x03	; 3
     148:	9f d4       	rcall	.+2366   	; 0xa88 <rprintfInit>
  rprintfu16(data);    
     14a:	c8 01       	movw	r24, r16
     14c:	e8 d4       	rcall	.+2512   	; 0xb1e <rprintfu16>
  
  // Set all output of the rprintf routine to the Uart
	rprintfInit(uartSendChar);		  
     14e:	82 e2       	ldi	r24, 0x22	; 34
     150:	97 e0       	ldi	r25, 0x07	; 7
     152:	9a d4       	rcall	.+2356   	; 0xa88 <rprintfInit>
}
     154:	1f 91       	pop	r17
     156:	0f 91       	pop	r16
     158:	08 95       	ret

0000015a <lcdprint_hex_u08>:

//***************************************************
// void lcdprint_hex_u08(u08x, u08y, u08 data)
//***************************************************
void lcdprint_hex_u08(u08 data)
{
     15a:	1f 93       	push	r17
     15c:	18 2f       	mov	r17, r24
  // Set all output of the rprintf routine to the LCD screen
	rprintfInit(lcdDataWrite);		
     15e:	88 e9       	ldi	r24, 0x98	; 152
     160:	93 e0       	ldi	r25, 0x03	; 3
     162:	92 d4       	rcall	.+2340   	; 0xa88 <rprintfInit>
  rprintfu08(data);    
     164:	81 2f       	mov	r24, r17
     166:	d2 d4       	rcall	.+2468   	; 0xb0c <rprintfu08>
  
  // Set all output of the rprintf routine to the Uart
	rprintfInit(uartSendChar);		  
     168:	82 e2       	ldi	r24, 0x22	; 34
     16a:	97 e0       	ldi	r25, 0x07	; 7
     16c:	8d d4       	rcall	.+2330   	; 0xa88 <rprintfInit>
}
     16e:	1f 91       	pop	r17
     170:	08 95       	ret

00000172 <lcdprintChar>:
  // Set all output of the rprintf routine to the Uart
	rprintfInit(uartSendChar);		  
}

void lcdprintChar(u08 data)
{
     172:	1f 93       	push	r17
     174:	18 2f       	mov	r17, r24
  rprintfInit(lcdDataWrite);		
     176:	88 e9       	ldi	r24, 0x98	; 152
     178:	93 e0       	ldi	r25, 0x03	; 3
     17a:	86 d4       	rcall	.+2316   	; 0xa88 <rprintfInit>
  rprintfChar(data);    
     17c:	81 2f       	mov	r24, r17
     17e:	c0 d4       	rcall	.+2432   	; 0xb00 <rprintfChar>
  // Set all output of the rprintf routine to the Uart
  rprintfInit(uartSendChar);		  
     180:	82 e2       	ldi	r24, 0x22	; 34
     182:	97 e0       	ldi	r25, 0x07	; 7
     184:	81 d4       	rcall	.+2306   	; 0xa88 <rprintfInit>
}
     186:	1f 91       	pop	r17
     188:	08 95       	ret

0000018a <lcdprint>:

//***************************************************
// lcdprint(string)
//***************************************************
void lcdprint(u08 * str)
{
     18a:	0f 93       	push	r16
     18c:	1f 93       	push	r17
     18e:	8c 01       	movw	r16, r24
  // Set all output of the rprintf routine to the LCD screen
	rprintfInit(lcdDataWrite);		
     190:	88 e9       	ldi	r24, 0x98	; 152
     192:	93 e0       	ldi	r25, 0x03	; 3
     194:	79 d4       	rcall	.+2290   	; 0xa88 <rprintfInit>
  rprintf(str);    
     196:	c8 01       	movw	r24, r16
     198:	7c d4       	rcall	.+2296   	; 0xa92 <rprintf>
  
  // Set all output of the rprintf routine to the Uart
	rprintfInit(uartSendChar);		  
     19a:	82 e2       	ldi	r24, 0x22	; 34
     19c:	97 e0       	ldi	r25, 0x07	; 7
     19e:	74 d4       	rcall	.+2280   	; 0xa88 <rprintfInit>
}
     1a0:	1f 91       	pop	r17
     1a2:	0f 91       	pop	r16
     1a4:	08 95       	ret

000001a6 <lcdprintat>:

//***************************************************
// lcdprintat(x,y,string)
//***************************************************
void lcdprintat(u08 x,u08 y, u08 * str)
{
     1a6:	ef 92       	push	r14
     1a8:	ff 92       	push	r15
     1aa:	0f 93       	push	r16
     1ac:	1f 93       	push	r17
     1ae:	18 2f       	mov	r17, r24
     1b0:	06 2f       	mov	r16, r22
     1b2:	7a 01       	movw	r14, r20
  // Set all output of the rprintf routine to the LCD screen
	rprintfInit(lcdDataWrite);		
     1b4:	88 e9       	ldi	r24, 0x98	; 152
     1b6:	93 e0       	ldi	r25, 0x03	; 3
     1b8:	67 d4       	rcall	.+2254   	; 0xa88 <rprintfInit>
  lcdGotoXY(x,y);  
     1ba:	81 2f       	mov	r24, r17
     1bc:	60 2f       	mov	r22, r16
     1be:	cd d2       	rcall	.+1434   	; 0x75a <lcdGotoXY>
  rprintf(str);    
     1c0:	c7 01       	movw	r24, r14
     1c2:	67 d4       	rcall	.+2254   	; 0xa92 <rprintf>
  

  // Set all output of the rprintf routine to the Uart
	rprintfInit(uartSendChar);		  
     1c4:	82 e2       	ldi	r24, 0x22	; 34
     1c6:	97 e0       	ldi	r25, 0x07	; 7
     1c8:	5f d4       	rcall	.+2238   	; 0xa88 <rprintfInit>
}
     1ca:	1f 91       	pop	r17
     1cc:	0f 91       	pop	r16
     1ce:	ff 90       	pop	r15
     1d0:	ef 90       	pop	r14
     1d2:	08 95       	ret

000001d4 <Menu_Change>:
// void Menu_Change(u08 screen)
// Change to the select screen
//***************************************************
void Menu_Change(u08 screen)
{
  Menu.Screen = screen;
     1d4:	80 93 cb 01 	sts	0x01CB, r24
}
     1d8:	08 95       	ret

000001da <Menu_Display_TimeDigits>:
//**************************************************
// void Menu_Set_Time_Display_Digits(void)
// Allows the user to set the time of day on the LCD
//**************************************************
void Menu_Display_TimeDigits(u08 x, u08 y,u08 hours, u08 minutes)
{
     1da:	0f 93       	push	r16
     1dc:	1f 93       	push	r17
     1de:	14 2f       	mov	r17, r20
     1e0:	02 2f       	mov	r16, r18
	  lcdGotoXY(x,y);	     
     1e2:	bb d2       	rcall	.+1398   	; 0x75a <lcdGotoXY>
	  lcdprint_dec_u08(hours,1);
     1e4:	81 2f       	mov	r24, r17
     1e6:	61 e0       	ldi	r22, 0x01	; 1
     1e8:	9a df       	rcall	.-204    	; 0x11e <lcdprint_dec_u08>
	  lcdprint(":");
     1ea:	80 e0       	ldi	r24, 0x00	; 0
     1ec:	91 e0       	ldi	r25, 0x01	; 1
     1ee:	cd df       	rcall	.-102    	; 0x18a <lcdprint>
    lcdprint_dec_u08(minutes,1);
     1f0:	80 2f       	mov	r24, r16
     1f2:	61 e0       	ldi	r22, 0x01	; 1
     1f4:	94 df       	rcall	.-216    	; 0x11e <lcdprint_dec_u08>
}
     1f6:	1f 91       	pop	r17
     1f8:	0f 91       	pop	r16
     1fa:	08 95       	ret

000001fc <Menu_Show_Charging_VI>:
//***************************************************
// void Menu_Show_Charging_VI(void)
// Show the Charging information on the LCD
//***************************************************
void Menu_Show_Charging_VI(u08 key)
{      
     1fc:	1f 93       	push	r17

  wdt_reset();
     1fe:	a8 95       	wdr
  
  key = Kbd_Scan();
     200:	fc d1       	rcall	.+1016   	; 0x5fa <Kbd_Scan>
    
  if(key==UP_KEY)
     202:	83 30       	cpi	r24, 0x03	; 3
     204:	09 f4       	brne	.+2      	; 0x208 <Menu_Show_Charging_VI+0xc>
     206:	86 c0       	rjmp	.+268    	; 0x314 <Menu_Show_Charging_VI+0x118>
  {
    if(++Charging_Menu > 2)
      Charging_Menu= 0;
  }
  if(key==DOWN_KEY)
     208:	84 30       	cpi	r24, 0x04	; 4
     20a:	f1 f1       	breq	.+124    	; 0x288 <Menu_Show_Charging_VI+0x8c>
     20c:	80 91 b6 01 	lds	r24, 0x01B6
      Charging_Menu--;
  }
  
    
    
  switch(Charging_Menu)
     210:	81 30       	cpi	r24, 0x01	; 1
     212:	09 f4       	brne	.+2      	; 0x216 <Menu_Show_Charging_VI+0x1a>
     214:	8f c0       	rjmp	.+286    	; 0x334 <Menu_Show_Charging_VI+0x138>
     216:	81 30       	cpi	r24, 0x01	; 1
     218:	08 f0       	brcs	.+2      	; 0x21c <Menu_Show_Charging_VI+0x20>
     21a:	87 c0       	rjmp	.+270    	; 0x32a <Menu_Show_Charging_VI+0x12e>
        lcdprint(" ");
        lcdprint_dec_u08(OCR1A,0);	
    break;
    
    case 0:
        lcdClear();
     21c:	b9 d2       	rcall	.+1394   	; 0x790 <lcdClear>
        //lcdHome();
        lcdprint("Charging ");
     21e:	8c e1       	ldi	r24, 0x1C	; 28
     220:	91 e0       	ldi	r25, 0x01	; 1
     222:	b3 df       	rcall	.-154    	; 0x18a <lcdprint>
        u08 i;
        for(i=0;i<chargingdots;i++)
     224:	80 91 b7 01 	lds	r24, 0x01B7
     228:	88 23       	and	r24, r24
     22a:	09 f4       	brne	.+2      	; 0x22e <Menu_Show_Charging_VI+0x32>
     22c:	c1 c0       	rjmp	.+386    	; 0x3b0 <Menu_Show_Charging_VI+0x1b4>
     22e:	10 e0       	ldi	r17, 0x00	; 0
          lcdprint(".");
     230:	86 e2       	ldi	r24, 0x26	; 38
     232:	91 e0       	ldi	r25, 0x01	; 1
     234:	aa df       	rcall	.-172    	; 0x18a <lcdprint>
    case 0:
        lcdClear();
        //lcdHome();
        lcdprint("Charging ");
        u08 i;
        for(i=0;i<chargingdots;i++)
     236:	1f 5f       	subi	r17, 0xFF	; 255
     238:	80 91 b7 01 	lds	r24, 0x01B7
     23c:	18 17       	cp	r17, r24
     23e:	c0 f3       	brcs	.-16     	; 0x230 <Menu_Show_Charging_VI+0x34>
          lcdprint(".");
        if(++chargingdots > 6)
     240:	8f 5f       	subi	r24, 0xFF	; 255
     242:	80 93 b7 01 	sts	0x01B7, r24
     246:	87 30       	cpi	r24, 0x07	; 7
     248:	10 f0       	brcs	.+4      	; 0x24e <Menu_Show_Charging_VI+0x52>
          chargingdots =0;
     24a:	10 92 b7 01 	sts	0x01B7, r1

        lcdprintat(0,1,"SN");            
     24e:	80 e0       	ldi	r24, 0x00	; 0
     250:	61 e0       	ldi	r22, 0x01	; 1
     252:	48 e2       	ldi	r20, 0x28	; 40
     254:	51 e0       	ldi	r21, 0x01	; 1
     256:	a7 df       	rcall	.-178    	; 0x1a6 <lcdprintat>
        lcdprint_dec_u16(PackInfo.SerialNo);       
     258:	80 91 5a 02 	lds	r24, 0x025A
     25c:	90 91 5b 02 	lds	r25, 0x025B
     260:	50 df       	rcall	.-352    	; 0x102 <lcdprint_dec_u16>
                
        Menu_Display_TimeDigits(7,1,PackInfo.ChargeTime.hours,PackInfo.ChargeTime.minutes);                
     262:	87 e0       	ldi	r24, 0x07	; 7
     264:	61 e0       	ldi	r22, 0x01	; 1
     266:	40 91 90 02 	lds	r20, 0x0290
     26a:	20 91 8f 02 	lds	r18, 0x028F
     26e:	b5 df       	rcall	.-150    	; 0x1da <Menu_Display_TimeDigits>
        
        lcdGotoXY(13,1);
     270:	8d e0       	ldi	r24, 0x0D	; 13
     272:	61 e0       	ldi	r22, 0x01	; 1
     274:	72 d2       	rcall	.+1252   	; 0x75a <lcdGotoXY>
        lcdprint_dec_u08(PackInfo.Temperature_deg,1); 
     276:	80 91 60 02 	lds	r24, 0x0260
     27a:	61 e0       	ldi	r22, 0x01	; 1
     27c:	50 df       	rcall	.-352    	; 0x11e <lcdprint_dec_u08>
        lcdprint("ß");
     27e:	85 e1       	ldi	r24, 0x15	; 21
     280:	91 e0       	ldi	r25, 0x01	; 1
     282:	83 df       	rcall	.-250    	; 0x18a <lcdprint>
         
        //Menu_Display_TimeDigits(11,1,hour,min);                
    break;
  }
  
}       
     284:	1f 91       	pop	r17
     286:	08 95       	ret
    if(++Charging_Menu > 2)
      Charging_Menu= 0;
  }
  if(key==DOWN_KEY)
  {
    if(Charging_Menu== 0)
     288:	80 91 b6 01 	lds	r24, 0x01B6
     28c:	88 23       	and	r24, r24
     28e:	09 f0       	breq	.+2      	; 0x292 <Menu_Show_Charging_VI+0x96>
     290:	83 c0       	rjmp	.+262    	; 0x398 <Menu_Show_Charging_VI+0x19c>
      Charging_Menu= 2;
     292:	82 e0       	ldi	r24, 0x02	; 2
     294:	80 93 b6 01 	sts	0x01B6, r24
    
    
  switch(Charging_Menu)
  {
    case 2:
      Comms_Get_PackTime();
     298:	45 da       	rcall	.-2934   	; 0xfffff724 <__eeprom_end+0xff7ef724>
      lcdClear();   
     29a:	7a d2       	rcall	.+1268   	; 0x790 <lcdClear>
      lcdGotoXY(0,0);  
     29c:	80 e0       	ldi	r24, 0x00	; 0
     29e:	60 e0       	ldi	r22, 0x00	; 0
     2a0:	5c d2       	rcall	.+1208   	; 0x75a <lcdGotoXY>
      switch(PackInfo.PackType)
     2a2:	80 91 59 02 	lds	r24, 0x0259
     2a6:	81 30       	cpi	r24, 0x01	; 1
     2a8:	09 f4       	brne	.+2      	; 0x2ac <Menu_Show_Charging_VI+0xb0>
     2aa:	7a c0       	rjmp	.+244    	; 0x3a0 <Menu_Show_Charging_VI+0x1a4>
     2ac:	82 30       	cpi	r24, 0x02	; 2
     2ae:	09 f4       	brne	.+2      	; 0x2b2 <Menu_Show_Charging_VI+0xb6>
     2b0:	7b c0       	rjmp	.+246    	; 0x3a8 <Menu_Show_Charging_VI+0x1ac>
        break;
        case  0x02:
          lcdprint("MB");
        break;
        default:
          lcdprint("??");
     2b2:	88 e0       	ldi	r24, 0x08	; 8
     2b4:	91 e0       	ldi	r25, 0x01	; 1
     2b6:	69 df       	rcall	.-302    	; 0x18a <lcdprint>
        break;
      }
      
      Menu_Display_TimeDigits(4,0,PackInfo.StartTime.hours,PackInfo.StartTime.minutes);                
     2b8:	84 e0       	ldi	r24, 0x04	; 4
     2ba:	60 e0       	ldi	r22, 0x00	; 0
     2bc:	40 91 72 02 	lds	r20, 0x0272
     2c0:	20 91 71 02 	lds	r18, 0x0271
     2c4:	8a df       	rcall	.-236    	; 0x1da <Menu_Display_TimeDigits>
      lcdGotoXY(9,0);  
     2c6:	89 e0       	ldi	r24, 0x09	; 9
     2c8:	60 e0       	ldi	r22, 0x00	; 0
     2ca:	47 d2       	rcall	.+1166   	; 0x75a <lcdGotoXY>
      lcdprint("->");
     2cc:	8b e0       	ldi	r24, 0x0B	; 11
     2ce:	91 e0       	ldi	r25, 0x01	; 1
     2d0:	5c df       	rcall	.-328    	; 0x18a <lcdprint>
      Menu_Display_TimeDigits(11,0,PackInfo.StopTime.hours,PackInfo.StopTime.minutes);                        
     2d2:	8b e0       	ldi	r24, 0x0B	; 11
     2d4:	60 e0       	ldi	r22, 0x00	; 0
     2d6:	40 91 7c 02 	lds	r20, 0x027C
     2da:	20 91 7b 02 	lds	r18, 0x027B
     2de:	7d df       	rcall	.-262    	; 0x1da <Menu_Display_TimeDigits>
      
            
      lcdprintat(0,1,"RC");      
     2e0:	80 e0       	ldi	r24, 0x00	; 0
     2e2:	61 e0       	ldi	r22, 0x01	; 1
     2e4:	4e e0       	ldi	r20, 0x0E	; 14
     2e6:	51 e0       	ldi	r21, 0x01	; 1
     2e8:	5e df       	rcall	.-324    	; 0x1a6 <lcdprintat>
      lcdprint_dec_u16(PackInfo.RechargeNo);
     2ea:	80 91 5c 02 	lds	r24, 0x025C
     2ee:	90 91 5d 02 	lds	r25, 0x025D
     2f2:	07 df       	rcall	.-498    	; 0x102 <lcdprint_dec_u16>
      Menu_Display_TimeDigits(8,1,PackInfo.Time.hours,PackInfo.Time.minutes); 
     2f4:	88 e0       	ldi	r24, 0x08	; 8
     2f6:	61 e0       	ldi	r22, 0x01	; 1
     2f8:	40 91 68 02 	lds	r20, 0x0268
     2fc:	20 91 67 02 	lds	r18, 0x0267
     300:	6c df       	rcall	.-296    	; 0x1da <Menu_Display_TimeDigits>
      lcdprint(":");      
     302:	80 e0       	ldi	r24, 0x00	; 0
     304:	91 e0       	ldi	r25, 0x01	; 1
     306:	41 df       	rcall	.-382    	; 0x18a <lcdprint>
      lcdprint_dec_u08(PackInfo.Time.seconds,1);
     308:	80 91 66 02 	lds	r24, 0x0266
     30c:	61 e0       	ldi	r22, 0x01	; 1
     30e:	07 df       	rcall	.-498    	; 0x11e <lcdprint_dec_u08>
         
        //Menu_Display_TimeDigits(11,1,hour,min);                
    break;
  }
  
}       
     310:	1f 91       	pop	r17
     312:	08 95       	ret
  
  key = Kbd_Scan();
    
  if(key==UP_KEY)
  {
    if(++Charging_Menu > 2)
     314:	80 91 b6 01 	lds	r24, 0x01B6
     318:	8f 5f       	subi	r24, 0xFF	; 255
     31a:	80 93 b6 01 	sts	0x01B6, r24
     31e:	83 30       	cpi	r24, 0x03	; 3
     320:	08 f4       	brcc	.+2      	; 0x324 <Menu_Show_Charging_VI+0x128>
     322:	76 cf       	rjmp	.-276    	; 0x210 <Menu_Show_Charging_VI+0x14>
      Charging_Menu= 0;
     324:	10 92 b6 01 	sts	0x01B6, r1
     328:	79 cf       	rjmp	.-270    	; 0x21c <Menu_Show_Charging_VI+0x20>
      Charging_Menu--;
  }
  
    
    
  switch(Charging_Menu)
     32a:	82 30       	cpi	r24, 0x02	; 2
     32c:	09 f4       	brne	.+2      	; 0x330 <Menu_Show_Charging_VI+0x134>
     32e:	b4 cf       	rjmp	.-152    	; 0x298 <Menu_Show_Charging_VI+0x9c>
         
        //Menu_Display_TimeDigits(11,1,hour,min);                
    break;
  }
  
}       
     330:	1f 91       	pop	r17
     332:	08 95       	ret
      lcdprint_dec_u08(PackInfo.Time.seconds,1);

    break;
  
    case 1:
        lcdClear();
     334:	2d d2       	rcall	.+1114   	; 0x790 <lcdClear>
        //lcdHome();
        
        lcdprint_dec_u16(PackInfo.volta_mV); 
     336:	80 91 a2 02 	lds	r24, 0x02A2
     33a:	90 91 a3 02 	lds	r25, 0x02A3
     33e:	e1 de       	rcall	.-574    	; 0x102 <lcdprint_dec_u16>
        lcdprint("mV ");
     340:	81 e1       	ldi	r24, 0x11	; 17
     342:	91 e0       	ldi	r25, 0x01	; 1
     344:	22 df       	rcall	.-444    	; 0x18a <lcdprint>
        
        lcdprint_dec_u08(PackInfo.Temperature_deg,1); 
     346:	80 91 60 02 	lds	r24, 0x0260
     34a:	61 e0       	ldi	r22, 0x01	; 1
     34c:	e8 de       	rcall	.-560    	; 0x11e <lcdprint_dec_u08>
        lcdprint("ß");
     34e:	85 e1       	ldi	r24, 0x15	; 21
     350:	91 e0       	ldi	r25, 0x01	; 1
     352:	1b df       	rcall	.-458    	; 0x18a <lcdprint>
        
        lcdprint_dec_u16(PackInfo.currenta_mA);      
     354:	80 91 a4 02 	lds	r24, 0x02A4
     358:	90 91 a5 02 	lds	r25, 0x02A5
     35c:	d2 de       	rcall	.-604    	; 0x102 <lcdprint_dec_u16>
        lcdprint("mA");
     35e:	87 e1       	ldi	r24, 0x17	; 23
     360:	91 e0       	ldi	r25, 0x01	; 1
     362:	13 df       	rcall	.-474    	; 0x18a <lcdprint>
  
        Menu_Display_TimeDigits(0,1,PackInfo.ChargeTime.hours,PackInfo.ChargeTime.minutes);
     364:	80 e0       	ldi	r24, 0x00	; 0
     366:	61 e0       	ldi	r22, 0x01	; 1
     368:	40 91 90 02 	lds	r20, 0x0290
     36c:	20 91 8f 02 	lds	r18, 0x028F
     370:	34 df       	rcall	.-408    	; 0x1da <Menu_Display_TimeDigits>

        lcdprint(" ");
     372:	8a e1       	ldi	r24, 0x1A	; 26
     374:	91 e0       	ldi	r25, 0x01	; 1
     376:	09 df       	rcall	.-494    	; 0x18a <lcdprint>
        lcdprint_dec_u16(PackInfo.Temperature);      
     378:	80 91 5e 02 	lds	r24, 0x025E
     37c:	90 91 5f 02 	lds	r25, 0x025F
     380:	c0 de       	rcall	.-640    	; 0x102 <lcdprint_dec_u16>
        
        lcdprint(" ");
     382:	8a e1       	ldi	r24, 0x1A	; 26
     384:	91 e0       	ldi	r25, 0x01	; 1
     386:	01 df       	rcall	.-510    	; 0x18a <lcdprint>
        lcdprint_dec_u08(OCR1A,0);	
     388:	80 91 88 00 	lds	r24, 0x0088
     38c:	90 91 89 00 	lds	r25, 0x0089
     390:	60 e0       	ldi	r22, 0x00	; 0
     392:	c5 de       	rcall	.-630    	; 0x11e <lcdprint_dec_u08>
         
        //Menu_Display_TimeDigits(11,1,hour,min);                
    break;
  }
  
}       
     394:	1f 91       	pop	r17
     396:	08 95       	ret
  if(key==DOWN_KEY)
  {
    if(Charging_Menu== 0)
      Charging_Menu= 2;
    else
      Charging_Menu--;
     398:	81 50       	subi	r24, 0x01	; 1
     39a:	80 93 b6 01 	sts	0x01B6, r24
     39e:	38 cf       	rjmp	.-400    	; 0x210 <Menu_Show_Charging_VI+0x14>
      lcdClear();   
      lcdGotoXY(0,0);  
      switch(PackInfo.PackType)
      {       
        case 0x01:
          lcdprint("ST");
     3a0:	82 e0       	ldi	r24, 0x02	; 2
     3a2:	91 e0       	ldi	r25, 0x01	; 1
     3a4:	f2 de       	rcall	.-540    	; 0x18a <lcdprint>
     3a6:	88 cf       	rjmp	.-240    	; 0x2b8 <Menu_Show_Charging_VI+0xbc>
        break;
        case  0x02:
          lcdprint("MB");
     3a8:	85 e0       	ldi	r24, 0x05	; 5
     3aa:	91 e0       	ldi	r25, 0x01	; 1
     3ac:	ee de       	rcall	.-548    	; 0x18a <lcdprint>
     3ae:	84 cf       	rjmp	.-248    	; 0x2b8 <Menu_Show_Charging_VI+0xbc>
        //lcdHome();
        lcdprint("Charging ");
        u08 i;
        for(i=0;i<chargingdots;i++)
          lcdprint(".");
        if(++chargingdots > 6)
     3b0:	81 e0       	ldi	r24, 0x01	; 1
     3b2:	80 93 b7 01 	sts	0x01B7, r24
     3b6:	4b cf       	rjmp	.-362    	; 0x24e <Menu_Show_Charging_VI+0x52>

000003b8 <Menu_Show_Time>:
// void Show_Time(void)
// Shows the current time of day on the LCD
//**************************************************
u08 oogle;
void Menu_Show_Time(u08 type)
{
     3b8:	0f 93       	push	r16
     3ba:	1f 93       	push	r17
     3bc:	df 93       	push	r29
     3be:	cf 93       	push	r28
     3c0:	00 d0       	rcall	.+0      	; 0x3c2 <Menu_Show_Time+0xa>
     3c2:	0f 92       	push	r0
     3c4:	cd b7       	in	r28, 0x3d	; 61
     3c6:	de b7       	in	r29, 0x3e	; 62
    s08 hours, minutes, seconds;
    wdt_reset();
     3c8:	a8 95       	wdr

  lcdClear();  
     3ca:	e2 d1       	rcall	.+964    	; 0x790 <lcdClear>
        
	Time_readtime((u08*)&hours,(u08*)&minutes,(u08*)&seconds);                        
     3cc:	ce 01       	movw	r24, r28
     3ce:	01 96       	adiw	r24, 0x01	; 1
     3d0:	be 01       	movw	r22, r28
     3d2:	6e 5f       	subi	r22, 0xFE	; 254
     3d4:	7f 4f       	sbci	r23, 0xFF	; 255
     3d6:	ae 01       	movw	r20, r28
     3d8:	4d 5f       	subi	r20, 0xFD	; 253
     3da:	5f 4f       	sbci	r21, 0xFF	; 255
     3dc:	a2 d5       	rcall	.+2884   	; 0xf22 <Time_readtime>
	lcdGotoXY(4,1);	     
     3de:	84 e0       	ldi	r24, 0x04	; 4
     3e0:	61 e0       	ldi	r22, 0x01	; 1
     3e2:	bb d1       	rcall	.+886    	; 0x75a <lcdGotoXY>
	lcdprint_dec_u08(hours,1);
     3e4:	89 81       	ldd	r24, Y+1	; 0x01
     3e6:	61 e0       	ldi	r22, 0x01	; 1
     3e8:	9a de       	rcall	.-716    	; 0x11e <lcdprint_dec_u08>
	lcdprint(":");
     3ea:	00 e0       	ldi	r16, 0x00	; 0
     3ec:	11 e0       	ldi	r17, 0x01	; 1
     3ee:	c8 01       	movw	r24, r16
     3f0:	cc de       	rcall	.-616    	; 0x18a <lcdprint>
	lcdprint_dec_u08(minutes,1);    
     3f2:	8a 81       	ldd	r24, Y+2	; 0x02
     3f4:	61 e0       	ldi	r22, 0x01	; 1
     3f6:	93 de       	rcall	.-730    	; 0x11e <lcdprint_dec_u08>
	lcdprint(":");
     3f8:	c8 01       	movw	r24, r16
     3fa:	c7 de       	rcall	.-626    	; 0x18a <lcdprint>
	lcdprint_dec_u08(seconds,1);
     3fc:	8b 81       	ldd	r24, Y+3	; 0x03
     3fe:	61 e0       	ldi	r22, 0x01	; 1
     400:	8e de       	rcall	.-740    	; 0x11e <lcdprint_dec_u08>
	lcdprintat(3,0,"-Primedia-");         
     402:	83 e0       	ldi	r24, 0x03	; 3
     404:	60 e0       	ldi	r22, 0x00	; 0
     406:	4b e2       	ldi	r20, 0x2B	; 43
     408:	51 e0       	ldi	r21, 0x01	; 1
     40a:	cd de       	rcall	.-614    	; 0x1a6 <lcdprintat>
        Menu_Display_TimeDigits(5,1,hours,minutes);       
      break;
      
    }  
*/                 
}
     40c:	0f 90       	pop	r0
     40e:	0f 90       	pop	r0
     410:	0f 90       	pop	r0
     412:	cf 91       	pop	r28
     414:	df 91       	pop	r29
     416:	1f 91       	pop	r17
     418:	0f 91       	pop	r16
     41a:	08 95       	ret

0000041c <Menu_Set_Time>:
//**************************************************
// void Menu_Set_Time(void)
// Allows the user to set the time of day on the LCD
//**************************************************
void Menu_Set_Time(u08 type)
{
     41c:	df 92       	push	r13
     41e:	ef 92       	push	r14
     420:	ff 92       	push	r15
     422:	0f 93       	push	r16
     424:	1f 93       	push	r17
     426:	df 93       	push	r29
     428:	cf 93       	push	r28
     42a:	00 d0       	rcall	.+0      	; 0x42c <Menu_Set_Time+0x10>
     42c:	0f 92       	push	r0
     42e:	cd b7       	in	r28, 0x3d	; 61
     430:	de b7       	in	r29, 0x3e	; 62
     432:	18 2f       	mov	r17, r24
  s08 hours, minutes, seconds;
  
    lcdClear();  
     434:	ad d1       	rcall	.+858    	; 0x790 <lcdClear>

	lcdprintat(3,0,"*Set Time*");     
     436:	83 e0       	ldi	r24, 0x03	; 3
     438:	60 e0       	ldi	r22, 0x00	; 0
     43a:	46 e3       	ldi	r20, 0x36	; 54
     43c:	51 e0       	ldi	r21, 0x01	; 1
     43e:	b3 de       	rcall	.-666    	; 0x1a6 <lcdprintat>
	Time_readtime((u08*)&hours,(u08*)&minutes,(u08*)&seconds);                  
     440:	ce 01       	movw	r24, r28
     442:	01 96       	adiw	r24, 0x01	; 1
     444:	be 01       	movw	r22, r28
     446:	6e 5f       	subi	r22, 0xFE	; 254
     448:	7f 4f       	sbci	r23, 0xFF	; 255
     44a:	ae 01       	movw	r20, r28
     44c:	4d 5f       	subi	r20, 0xFD	; 253
     44e:	5f 4f       	sbci	r21, 0xFF	; 255
     450:	68 d5       	rcall	.+2768   	; 0xf22 <Time_readtime>
        hours = EEPROM_INT_read(STOPTIME_HOUR_ADDR);
        minutes = EEPROM_INT_read(STOPTIME_HOUR_ADDR+1);                    
      break;      
    }
*/	
    seconds = 0;
     452:	1b 82       	std	Y+3, r1	; 0x03
    

    
    Menu.CursorPosX = MENU_SET_TIME_HOUR_COLON_X -1;
     454:	86 e0       	ldi	r24, 0x06	; 6
     456:	80 93 c8 01 	sts	0x01C8, r24
    Menu.CursorPosY = 1;
     45a:	81 e0       	ldi	r24, 0x01	; 1
     45c:	80 93 c9 01 	sts	0x01C9, r24
    lcdGotoXY(Menu.CursorPosX, Menu.CursorPosY);
     460:	86 e0       	ldi	r24, 0x06	; 6
     462:	61 e0       	ldi	r22, 0x01	; 1
     464:	7a d1       	rcall	.+756    	; 0x75a <lcdGotoXY>
    // Blink
    lcdControlWrite(1<<LCD_ON_CTRL | 1<<LCD_ON_DISPLAY | 1<<LCD_ON_CURSOR);
     466:	8e e0       	ldi	r24, 0x0E	; 14
     468:	4e d1       	rcall	.+668    	; 0x706 <lcdControlWrite>

    Menu_Display_TimeDigits(MENU_SET_TIME_HOUR_COLON_X-2, Menu.CursorPosY, hours,minutes);
     46a:	85 e0       	ldi	r24, 0x05	; 5
     46c:	60 91 c9 01 	lds	r22, 0x01C9
     470:	49 81       	ldd	r20, Y+1	; 0x01
     472:	2a 81       	ldd	r18, Y+2	; 0x02
     474:	b2 de       	rcall	.-668    	; 0x1da <Menu_Display_TimeDigits>

    wdt_reset();
     476:	a8 95       	wdr

    // Pause to allow the Enter Key to resettle
    delay(15000);
     478:	88 e9       	ldi	r24, 0x98	; 152
     47a:	9a e3       	ldi	r25, 0x3A	; 58
     47c:	00 de       	rcall	.-1024   	; 0x7e <delay>
            }
            else 
            {
              minutes--;
              if (minutes < 0)                
                minutes = 59;                        
     47e:	2b e3       	ldi	r18, 0x3B	; 59
     480:	e2 2e       	mov	r14, r18
          case DOWN_KEY:
            if(Menu.CursorPosX <7)
            {
              hours--;
              if (hours < 0)
                hours = 23;                
     482:	97 e1       	ldi	r25, 0x17	; 23
     484:	d9 2e       	mov	r13, r25
            Menu.CursorPosX--;
            if(Menu.CursorPosX == MENU_SET_TIME_HOUR_COLON_X+1 )            
              Menu.CursorPosX = MENU_SET_TIME_HOUR_COLON_X-1;
            if(Menu.CursorPosX <MENU_SET_TIME_HOUR_COLON_X-1)              
            if(Menu.CursorPosX <6)
              Menu.CursorPosX = MENU_SET_TIME_HOUR_COLON_X-1;
     486:	06 e0       	ldi	r16, 0x06	; 6
          case RIGHT_KEY:
            Menu.CursorPosX++;
            if(Menu.CursorPosX == MENU_SET_TIME_HOUR_COLON_X )
              Menu.CursorPosX = MENU_SET_TIME_HOUR_COLON_X+2;
            if(Menu.CursorPosX >MENU_SET_TIME_HOUR_COLON_X+2)
              Menu.CursorPosX = MENU_SET_TIME_HOUR_COLON_X+2;              
     488:	89 e0       	ldi	r24, 0x09	; 9
     48a:	f8 2e       	mov	r15, r24
    

    u08 Complete =0;
    while(!Complete)
    {   
      wdt_reset();
     48c:	a8 95       	wdr
      lcdGotoXY(Menu.CursorPosX, Menu.CursorPosY);    
     48e:	80 91 c8 01 	lds	r24, 0x01C8
     492:	60 91 c9 01 	lds	r22, 0x01C9
     496:	61 d1       	rcall	.+706    	; 0x75a <lcdGotoXY>
      // Scan the keyboard 
      u08 key = Kbd_Scan();
     498:	b0 d0       	rcall	.+352    	; 0x5fa <Kbd_Scan>
      if ( key != NO_KEY)
     49a:	88 23       	and	r24, r24
     49c:	b9 f3       	breq	.-18     	; 0x48c <Menu_Set_Time+0x70>
      {
        switch(key)
     49e:	83 30       	cpi	r24, 0x03	; 3
     4a0:	09 f4       	brne	.+2      	; 0x4a4 <Menu_Set_Time+0x88>
     4a2:	43 c0       	rjmp	.+134    	; 0x52a <__stack+0x2b>
     4a4:	84 30       	cpi	r24, 0x04	; 4
     4a6:	80 f4       	brcc	.+32     	; 0x4c8 <Menu_Set_Time+0xac>
     4a8:	81 30       	cpi	r24, 0x01	; 1
     4aa:	91 f1       	breq	.+100    	; 0x510 <__stack+0x11>
     4ac:	82 30       	cpi	r24, 0x02	; 2
     4ae:	71 f7       	brne	.-36     	; 0x48c <Menu_Set_Time+0x70>
        {
          case RIGHT_KEY:
            Menu.CursorPosX++;
     4b0:	80 91 c8 01 	lds	r24, 0x01C8
     4b4:	8f 5f       	subi	r24, 0xFF	; 255
     4b6:	80 93 c8 01 	sts	0x01C8, r24
            if(Menu.CursorPosX == MENU_SET_TIME_HOUR_COLON_X )
     4ba:	87 30       	cpi	r24, 0x07	; 7
     4bc:	11 f0       	breq	.+4      	; 0x4c2 <Menu_Set_Time+0xa6>
              Menu.CursorPosX = MENU_SET_TIME_HOUR_COLON_X+2;
            if(Menu.CursorPosX >MENU_SET_TIME_HOUR_COLON_X+2)
     4be:	8a 30       	cpi	r24, 0x0A	; 10
     4c0:	28 f3       	brcs	.-54     	; 0x48c <Menu_Set_Time+0x70>
              Menu.CursorPosX = MENU_SET_TIME_HOUR_COLON_X+2;              
     4c2:	f0 92 c8 01 	sts	0x01C8, r15
     4c6:	e2 cf       	rjmp	.-60     	; 0x48c <Menu_Set_Time+0x70>
      lcdGotoXY(Menu.CursorPosX, Menu.CursorPosY);    
      // Scan the keyboard 
      u08 key = Kbd_Scan();
      if ( key != NO_KEY)
      {
        switch(key)
     4c8:	84 30       	cpi	r24, 0x04	; 4
     4ca:	91 f0       	breq	.+36     	; 0x4f0 <Menu_Set_Time+0xd4>
     4cc:	85 30       	cpi	r24, 0x05	; 5
     4ce:	f1 f6       	brne	.-68     	; 0x48c <Menu_Set_Time+0x70>
            }         
            Menu_Display_TimeDigits(MENU_SET_TIME_HOUR_COLON_X-2, Menu.CursorPosY, hours,minutes);
          break;
          
          case ENTER_KEY:
            switch(type)
     4d0:	11 30       	cpi	r17, 0x01	; 1
     4d2:	09 f4       	brne	.+2      	; 0x4d6 <Menu_Set_Time+0xba>
     4d4:	51 c0       	rjmp	.+162    	; 0x578 <__stack+0x79>
                Menu.Screen = MENU_STOPTIME;                            
              break;              
			  */
            }                     
            Complete  = 1;
            lcdControlWrite(1<<LCD_ON_CTRL | 1<<LCD_ON_DISPLAY);            
     4d6:	8c e0       	ldi	r24, 0x0C	; 12
     4d8:	16 d1       	rcall	.+556    	; 0x706 <lcdControlWrite>
        }
      }
      
     } 
    
}
     4da:	0f 90       	pop	r0
     4dc:	0f 90       	pop	r0
     4de:	0f 90       	pop	r0
     4e0:	cf 91       	pop	r28
     4e2:	df 91       	pop	r29
     4e4:	1f 91       	pop	r17
     4e6:	0f 91       	pop	r16
     4e8:	ff 90       	pop	r15
     4ea:	ef 90       	pop	r14
     4ec:	df 90       	pop	r13
     4ee:	08 95       	ret
            }
            Menu_Display_TimeDigits(MENU_SET_TIME_HOUR_COLON_X-2, Menu.CursorPosY, hours,minutes);
          break;
          
          case DOWN_KEY:
            if(Menu.CursorPosX <7)
     4f0:	80 91 c8 01 	lds	r24, 0x01C8
     4f4:	87 30       	cpi	r24, 0x07	; 7
     4f6:	50 f5       	brcc	.+84     	; 0x54c <__stack+0x4d>
            {
              hours--;
     4f8:	89 81       	ldd	r24, Y+1	; 0x01
     4fa:	81 50       	subi	r24, 0x01	; 1
     4fc:	89 83       	std	Y+1, r24	; 0x01
              if (hours < 0)
     4fe:	87 fd       	sbrc	r24, 7
     500:	39 c0       	rjmp	.+114    	; 0x574 <__stack+0x75>
            {
              minutes--;
              if (minutes < 0)                
                minutes = 59;                        
            }         
            Menu_Display_TimeDigits(MENU_SET_TIME_HOUR_COLON_X-2, Menu.CursorPosY, hours,minutes);
     502:	85 e0       	ldi	r24, 0x05	; 5
     504:	60 91 c9 01 	lds	r22, 0x01C9
     508:	49 81       	ldd	r20, Y+1	; 0x01
     50a:	2a 81       	ldd	r18, Y+2	; 0x02
     50c:	66 de       	rcall	.-820    	; 0x1da <Menu_Display_TimeDigits>
     50e:	be cf       	rjmp	.-132    	; 0x48c <Menu_Set_Time+0x70>
            if(Menu.CursorPosX >MENU_SET_TIME_HOUR_COLON_X+2)
              Menu.CursorPosX = MENU_SET_TIME_HOUR_COLON_X+2;              
          break;
          
          case LEFT_KEY:
            Menu.CursorPosX--;
     510:	80 91 c8 01 	lds	r24, 0x01C8
     514:	81 50       	subi	r24, 0x01	; 1
     516:	80 93 c8 01 	sts	0x01C8, r24
            if(Menu.CursorPosX == MENU_SET_TIME_HOUR_COLON_X+1 )            
     51a:	88 30       	cpi	r24, 0x08	; 8
     51c:	19 f0       	breq	.+6      	; 0x524 <__stack+0x25>
              Menu.CursorPosX = MENU_SET_TIME_HOUR_COLON_X-1;
            if(Menu.CursorPosX <MENU_SET_TIME_HOUR_COLON_X-1)              
     51e:	86 30       	cpi	r24, 0x06	; 6
     520:	08 f0       	brcs	.+2      	; 0x524 <__stack+0x25>
     522:	b4 cf       	rjmp	.-152    	; 0x48c <Menu_Set_Time+0x70>
            if(Menu.CursorPosX <6)
              Menu.CursorPosX = MENU_SET_TIME_HOUR_COLON_X-1;
     524:	00 93 c8 01 	sts	0x01C8, r16
     528:	b1 cf       	rjmp	.-158    	; 0x48c <Menu_Set_Time+0x70>
          break;
          
          case UP_KEY:
            if(Menu.CursorPosX <7)
     52a:	80 91 c8 01 	lds	r24, 0x01C8
     52e:	87 30       	cpi	r24, 0x07	; 7
     530:	a0 f4       	brcc	.+40     	; 0x55a <__stack+0x5b>
            {            
              hours++;
     532:	89 81       	ldd	r24, Y+1	; 0x01
     534:	8f 5f       	subi	r24, 0xFF	; 255
     536:	89 83       	std	Y+1, r24	; 0x01
              if (hours > 23)
     538:	88 31       	cpi	r24, 0x18	; 24
     53a:	1c f3       	brlt	.-58     	; 0x502 <__stack+0x3>
                hours = 0;            
     53c:	19 82       	std	Y+1, r1	; 0x01
            {
              minutes--;
              if (minutes < 0)                
                minutes = 59;                        
            }         
            Menu_Display_TimeDigits(MENU_SET_TIME_HOUR_COLON_X-2, Menu.CursorPosY, hours,minutes);
     53e:	85 e0       	ldi	r24, 0x05	; 5
     540:	60 91 c9 01 	lds	r22, 0x01C9
     544:	49 81       	ldd	r20, Y+1	; 0x01
     546:	2a 81       	ldd	r18, Y+2	; 0x02
     548:	48 de       	rcall	.-880    	; 0x1da <Menu_Display_TimeDigits>
     54a:	a0 cf       	rjmp	.-192    	; 0x48c <Menu_Set_Time+0x70>
              if (hours < 0)
                hours = 23;                
            }
            else 
            {
              minutes--;
     54c:	8a 81       	ldd	r24, Y+2	; 0x02
     54e:	81 50       	subi	r24, 0x01	; 1
     550:	8a 83       	std	Y+2, r24	; 0x02
              if (minutes < 0)                
     552:	87 ff       	sbrs	r24, 7
     554:	d6 cf       	rjmp	.-84     	; 0x502 <__stack+0x3>
                minutes = 59;                        
     556:	ea 82       	std	Y+2, r14	; 0x02
     558:	d4 cf       	rjmp	.-88     	; 0x502 <__stack+0x3>
                hours = 0;            
            }
            else 
            {
            
              minutes++;
     55a:	8a 81       	ldd	r24, Y+2	; 0x02
     55c:	8f 5f       	subi	r24, 0xFF	; 255
     55e:	8a 83       	std	Y+2, r24	; 0x02
              if (minutes > 59)
     560:	8c 33       	cpi	r24, 0x3C	; 60
     562:	7c f2       	brlt	.-98     	; 0x502 <__stack+0x3>
                minutes = 0;                        
     564:	1a 82       	std	Y+2, r1	; 0x02
            {
              minutes--;
              if (minutes < 0)                
                minutes = 59;                        
            }         
            Menu_Display_TimeDigits(MENU_SET_TIME_HOUR_COLON_X-2, Menu.CursorPosY, hours,minutes);
     566:	85 e0       	ldi	r24, 0x05	; 5
     568:	60 91 c9 01 	lds	r22, 0x01C9
     56c:	49 81       	ldd	r20, Y+1	; 0x01
     56e:	2a 81       	ldd	r18, Y+2	; 0x02
     570:	34 de       	rcall	.-920    	; 0x1da <Menu_Display_TimeDigits>
     572:	8c cf       	rjmp	.-232    	; 0x48c <Menu_Set_Time+0x70>
          case DOWN_KEY:
            if(Menu.CursorPosX <7)
            {
              hours--;
              if (hours < 0)
                hours = 23;                
     574:	d9 82       	std	Y+1, r13	; 0x01
     576:	c5 cf       	rjmp	.-118    	; 0x502 <__stack+0x3>
          
          case ENTER_KEY:
            switch(type)
            {
              case MENU_SET_TIME:
                Time_settime(hours,minutes,seconds);
     578:	89 81       	ldd	r24, Y+1	; 0x01
     57a:	6a 81       	ldd	r22, Y+2	; 0x02
     57c:	4b 81       	ldd	r20, Y+3	; 0x03
     57e:	84 d4       	rcall	.+2312   	; 0xe88 <Time_settime>
				#ifdef MASTER_COMMS
					MasterCharger_SendTime();				
				#endif
                Menu.Screen = MENU_TIME;
     580:	10 92 cb 01 	sts	0x01CB, r1
     584:	a8 cf       	rjmp	.-176    	; 0x4d6 <Menu_Set_Time+0xba>

00000586 <Menu_Show>:
// void Menu_Show(void)
// Show the Current Menu
//***************************************************
void Menu_Show(void)
{
  u08 key = Kbd_Scan();
     586:	39 d0       	rcall	.+114    	; 0x5fa <Kbd_Scan>
  wdt_reset();
     588:	a8 95       	wdr

  switch(Menu.Screen)
     58a:	90 91 cb 01 	lds	r25, 0x01CB
     58e:	99 23       	and	r25, r25
     590:	a1 f4       	brne	.+40     	; 0x5ba <Menu_Show+0x34>
  {
    case MENU_TIME:
      switch(key)
     592:	88 23       	and	r24, r24
     594:	c1 f4       	brne	.+48     	; 0x5c6 <Menu_Show+0x40>
          Menu.Screen = MENU_STARTTIME;        
        break;                
		#endif
        case NO_KEY:
            // Check if the seconds have changed
            Time_readtime((u08*)&Menu.hours,(u08*)&Menu.minutes,(u08*)&Menu.seconds);                              
     596:	8d ec       	ldi	r24, 0xCD	; 205
     598:	91 e0       	ldi	r25, 0x01	; 1
     59a:	6e ec       	ldi	r22, 0xCE	; 206
     59c:	71 e0       	ldi	r23, 0x01	; 1
     59e:	4f ec       	ldi	r20, 0xCF	; 207
     5a0:	51 e0       	ldi	r21, 0x01	; 1
     5a2:	bf d4       	rcall	.+2430   	; 0xf22 <Time_readtime>
            if(Menu.seconds != Menu.Prevseconds)
     5a4:	90 91 cf 01 	lds	r25, 0x01CF
     5a8:	80 91 d0 01 	lds	r24, 0x01D0
     5ac:	98 17       	cp	r25, r24
     5ae:	39 f0       	breq	.+14     	; 0x5be <Menu_Show+0x38>
            {
              Menu.Prevseconds = Menu.seconds;
     5b0:	90 93 d0 01 	sts	0x01D0, r25
              Menu_Show_Time(MENU_TIME);
     5b4:	80 e0       	ldi	r24, 0x00	; 0
     5b6:	00 df       	rcall	.-512    	; 0x3b8 <Menu_Show_Time>
     5b8:	08 95       	ret
void Menu_Show(void)
{
  u08 key = Kbd_Scan();
  wdt_reset();

  switch(Menu.Screen)
     5ba:	91 30       	cpi	r25, 0x01	; 1
     5bc:	09 f0       	breq	.+2      	; 0x5c0 <Menu_Show+0x3a>
     5be:	08 95       	ret
        break;        
      }
    break;
    
    case MENU_SET_TIME:
      Menu_Set_Time(MENU_SET_TIME);    
     5c0:	81 e0       	ldi	r24, 0x01	; 1
     5c2:	2c df       	rcall	.-424    	; 0x41c <Menu_Set_Time>
     5c4:	08 95       	ret
  wdt_reset();

  switch(Menu.Screen)
  {
    case MENU_TIME:
      switch(key)
     5c6:	85 30       	cpi	r24, 0x05	; 5
     5c8:	d1 f7       	brne	.-12     	; 0x5be <Menu_Show+0x38>
      {
        case ENTER_KEY:
		  #ifdef MASTER_COMMS
			Menu.Screen = MENU_SET_TIME; 
		  #else
			if(MasterTimePresent == 0)
     5ca:	80 91 4b 02 	lds	r24, 0x024B
     5ce:	88 23       	and	r24, r24
     5d0:	b1 f7       	brne	.-20     	; 0x5be <Menu_Show+0x38>
				Menu.Screen = MENU_SET_TIME; 			
     5d2:	81 e0       	ldi	r24, 0x01	; 1
     5d4:	80 93 cb 01 	sts	0x01CB, r24
     5d8:	08 95       	ret

000005da <Kbd_Enable>:
// void Kbd_Enable(u08 state)
// Set's the keyboard enable pin condition 
//**************************************************
void Kbd_Enable(u08 state)
{
  switch(state)
     5da:	81 30       	cpi	r24, 0x01	; 1
     5dc:	59 f0       	breq	.+22     	; 0x5f4 <Kbd_Enable+0x1a>
     5de:	81 30       	cpi	r24, 0x01	; 1
     5e0:	18 f4       	brcc	.+6      	; 0x5e8 <Kbd_Enable+0xe>
  {
    case 0:
      KDB_ENABLE_PORT_DDR = KDB_ENABLE_PORT_DDR | (1<<KDB_ENABLE_PIN);
     5e2:	3b 9a       	sbi	0x07, 3	; 7
      KDB_ENABLE_PORT     = KDB_ENABLE_PORT &~(1<<KDB_ENABLE_PIN);
     5e4:	43 98       	cbi	0x08, 3	; 8
     5e6:	08 95       	ret
// void Kbd_Enable(u08 state)
// Set's the keyboard enable pin condition 
//**************************************************
void Kbd_Enable(u08 state)
{
  switch(state)
     5e8:	83 30       	cpi	r24, 0x03	; 3
     5ea:	09 f0       	breq	.+2      	; 0x5ee <Kbd_Enable+0x14>
     5ec:	08 95       	ret
      KDB_ENABLE_PORT_DDR = KDB_ENABLE_PORT_DDR | (1<<KDB_ENABLE_PIN);
      KDB_ENABLE_PORT     = KDB_ENABLE_PORT |(1<<KDB_ENABLE_PIN);    
    break;
    
    case TRISTATE:
      KDB_ENABLE_PORT_DDR = KDB_ENABLE_PORT_DDR & ~(1<<KDB_ENABLE_PIN);
     5ee:	3b 98       	cbi	0x07, 3	; 7
      KDB_ENABLE_PORT     = KDB_ENABLE_PORT |(1<<KDB_ENABLE_PIN);        
     5f0:	43 9a       	sbi	0x08, 3	; 8
     5f2:	08 95       	ret
      KDB_ENABLE_PORT_DDR = KDB_ENABLE_PORT_DDR | (1<<KDB_ENABLE_PIN);
      KDB_ENABLE_PORT     = KDB_ENABLE_PORT &~(1<<KDB_ENABLE_PIN);
    break;
    
    case 1:
      KDB_ENABLE_PORT_DDR = KDB_ENABLE_PORT_DDR | (1<<KDB_ENABLE_PIN);
     5f4:	3b 9a       	sbi	0x07, 3	; 7
      KDB_ENABLE_PORT     = KDB_ENABLE_PORT |(1<<KDB_ENABLE_PIN);    
     5f6:	43 9a       	sbi	0x08, 3	; 8
     5f8:	08 95       	ret

000005fa <Kbd_Scan>:
// u08 Kbd_Scan(void)
// Scans the Keyboard and returns the keycode
//**************************************************

u08 Kbd_Scan(void)
{
     5fa:	ef 92       	push	r14
     5fc:	ff 92       	push	r15
     5fe:	0f 93       	push	r16
     600:	1f 93       	push	r17
  u08  databus, KeyCode;
  u08 stored_ddr, stored_port;
  
  wdt_reset();
     602:	a8 95       	wdr
  // Save the current state
  stored_ddr = KBD_PORT_DDR;
     604:	ea b0       	in	r14, 0x0a	; 10
  stored_port = KBD_PORT;
     606:	fb b0       	in	r15, 0x0b	; 11
  

  // Set the data bus as input with pull ups
  KBD_PORT_DDR  = KBD_PORT_DDR &~(KBD_ALLKEY);
     608:	8a b1       	in	r24, 0x0a	; 10
     60a:	87 70       	andi	r24, 0x07	; 7
     60c:	8a b9       	out	0x0a, r24	; 10
  KBD_PORT      = KBD_PORT | (KBD_ALLKEY); 
     60e:	8b b1       	in	r24, 0x0b	; 11
     610:	88 6f       	ori	r24, 0xF8	; 248
     612:	8b b9       	out	0x0b, r24	; 11
    
  Kbd_Enable(0);        // Enable the Keyboard
     614:	80 e0       	ldi	r24, 0x00	; 0
     616:	e1 df       	rcall	.-62     	; 0x5da <Kbd_Enable>
  
  KeyCode = NO_KEY;  
  
  databus = KBD_PORT_PIN & (KBD_ALLKEY);
     618:	49 b1       	in	r20, 0x09	; 9
     61a:	48 7f       	andi	r20, 0xF8	; 248
  if(databus!= KBD_ALLKEY)
     61c:	48 3f       	cpi	r20, 0xF8	; 248
     61e:	a1 f1       	breq	.+104    	; 0x688 <Kbd_Scan+0x8e>
  {
    // Now check which key it is
    if((databus & (1<<KBD_LEFTKEY_PIN)) == 0)
     620:	24 2f       	mov	r18, r20
     622:	30 e0       	ldi	r19, 0x00	; 0
      KeyCode = LEFT_KEY;
    if((databus & (1<<KBD_RIGHTKEY_PIN)) == 0)
     624:	46 ff       	sbrs	r20, 6
     626:	2e c0       	rjmp	.+92     	; 0x684 <Kbd_Scan+0x8a>
     628:	c9 01       	movw	r24, r18
     62a:	96 95       	lsr	r25
     62c:	87 95       	ror	r24
     62e:	96 95       	lsr	r25
     630:	87 95       	ror	r24
     632:	96 95       	lsr	r25
     634:	87 95       	ror	r24
     636:	08 2f       	mov	r16, r24
     638:	00 95       	com	r16
     63a:	01 70       	andi	r16, 0x01	; 1
      KeyCode = RIGHT_KEY;
    if((databus & (1<<KBD_UPKEY_PIN)) == 0)
     63c:	25 ff       	sbrs	r18, 5
     63e:	04 e0       	ldi	r16, 0x04	; 4
      KeyCode = DOWN_KEY;
    if((databus & (1<<KBD_DOWNKEY_PIN)) == 0)
     640:	24 ff       	sbrs	r18, 4
     642:	03 e0       	ldi	r16, 0x03	; 3
      KeyCode = UP_KEY;
    if((databus & (1<<KBD_ENTERKEY_PIN)) == 0)
     644:	47 ff       	sbrs	r20, 7
     646:	05 e0       	ldi	r16, 0x05	; 5
      KeyCode = ENTER_KEY;  

    Kbd.RepeatRateDelay = 75;
     648:	8b e4       	ldi	r24, 0x4B	; 75
     64a:	90 e0       	ldi	r25, 0x00	; 0
     64c:	90 93 d2 01 	sts	0x01D2, r25
     650:	80 93 d1 01 	sts	0x01D1, r24
     654:	10 e0       	ldi	r17, 0x00	; 0
    // Pause now at the repeat Rate
    u08 i;
    for(i=0;i<Kbd.RepeatRateDelay;i++)
      delay(4000);
     656:	80 ea       	ldi	r24, 0xA0	; 160
     658:	9f e0       	ldi	r25, 0x0F	; 15
     65a:	11 dd       	rcall	.-1502   	; 0x7e <delay>
      KeyCode = ENTER_KEY;  

    Kbd.RepeatRateDelay = 75;
    // Pause now at the repeat Rate
    u08 i;
    for(i=0;i<Kbd.RepeatRateDelay;i++)
     65c:	1f 5f       	subi	r17, 0xFF	; 255
     65e:	21 2f       	mov	r18, r17
     660:	30 e0       	ldi	r19, 0x00	; 0
     662:	80 91 d1 01 	lds	r24, 0x01D1
     666:	90 91 d2 01 	lds	r25, 0x01D2
     66a:	28 17       	cp	r18, r24
     66c:	39 07       	cpc	r19, r25
     66e:	98 f3       	brcs	.-26     	; 0x656 <Kbd_Scan+0x5c>
      delay(4000);
    
   }
   
   
  KBD_PORT_DDR  = stored_ddr;
     670:	ea b8       	out	0x0a, r14	; 10
  KBD_PORT      = stored_port;   
     672:	fb b8       	out	0x0b, r15	; 11
   
  Kbd_Enable(TRISTATE);        // Enable the Keyboard
     674:	83 e0       	ldi	r24, 0x03	; 3
     676:	b1 df       	rcall	.-158    	; 0x5da <Kbd_Enable>
   
   return(KeyCode);
}   
     678:	80 2f       	mov	r24, r16
     67a:	1f 91       	pop	r17
     67c:	0f 91       	pop	r16
     67e:	ff 90       	pop	r15
     680:	ef 90       	pop	r14
     682:	08 95       	ret
  if(databus!= KBD_ALLKEY)
  {
    // Now check which key it is
    if((databus & (1<<KBD_LEFTKEY_PIN)) == 0)
      KeyCode = LEFT_KEY;
    if((databus & (1<<KBD_RIGHTKEY_PIN)) == 0)
     684:	02 e0       	ldi	r16, 0x02	; 2
     686:	da cf       	rjmp	.-76     	; 0x63c <Kbd_Scan+0x42>
  Kbd_Enable(0);        // Enable the Keyboard
  
  KeyCode = NO_KEY;  
  
  databus = KBD_PORT_PIN & (KBD_ALLKEY);
  if(databus!= KBD_ALLKEY)
     688:	00 e0       	ldi	r16, 0x00	; 0
     68a:	f2 cf       	rjmp	.-28     	; 0x670 <Kbd_Scan+0x76>

0000068c <LCD_RS>:
//**************************************************

// PB4
void LCD_RS(unsigned char data)
{
  if(data)
     68c:	88 23       	and	r24, r24
     68e:	11 f4       	brne	.+4      	; 0x694 <LCD_RS+0x8>
    LCD_CTRL_RS_PORT = LCD_CTRL_RS_PORT |(1<<LCD_CTRL_RS);
  else
    LCD_CTRL_RS_PORT = LCD_CTRL_RS_PORT & ~(1<<LCD_CTRL_RS);
     690:	5a 98       	cbi	0x0b, 2	; 11
     692:	08 95       	ret

// PB4
void LCD_RS(unsigned char data)
{
  if(data)
    LCD_CTRL_RS_PORT = LCD_CTRL_RS_PORT |(1<<LCD_CTRL_RS);
     694:	5a 9a       	sbi	0x0b, 2	; 11
     696:	08 95       	ret

00000698 <LCD_ENABLE>:
}

// PD3
void LCD_ENABLE(unsigned char data)
{
  if(data)
     698:	88 23       	and	r24, r24
     69a:	11 f4       	brne	.+4      	; 0x6a0 <LCD_ENABLE+0x8>
  {
    LCD_CTRL_E_PORT = LCD_CTRL_E_PORT |(1<<LCD_CTRL_E);
  }
  else
  {
    LCD_CTRL_E_PORT = LCD_CTRL_E_PORT & ~(1<<LCD_CTRL_E);
     69c:	2a 98       	cbi	0x05, 2	; 5
     69e:	08 95       	ret
// PD3
void LCD_ENABLE(unsigned char data)
{
  if(data)
  {
    LCD_CTRL_E_PORT = LCD_CTRL_E_PORT |(1<<LCD_CTRL_E);
     6a0:	2a 9a       	sbi	0x05, 2	; 5
     6a2:	08 95       	ret

000006a4 <LCD_RW>:
}

//PB5
void LCD_RW(unsigned char data)
{
  if(data)
     6a4:	88 23       	and	r24, r24
     6a6:	11 f4       	brne	.+4      	; 0x6ac <LCD_RW+0x8>
    LCD_CTRL_RW_PORT = LCD_CTRL_RW_PORT |(1<<LCD_CTRL_RW);    
  else
    LCD_CTRL_RW_PORT = LCD_CTRL_RW_PORT & ~(1<<LCD_CTRL_RW);    
     6a8:	28 98       	cbi	0x05, 0	; 5
     6aa:	08 95       	ret

//PB5
void LCD_RW(unsigned char data)
{
  if(data)
    LCD_CTRL_RW_PORT = LCD_CTRL_RW_PORT |(1<<LCD_CTRL_RW);    
     6ac:	28 9a       	sbi	0x05, 0	; 5
     6ae:	08 95       	ret

000006b0 <LCD_ADELAY>:
	"brne L_%=\n\t"		\
	::: "r21")

void LCD_ADELAY(void)
{
DELAY_A;
     6b0:	5a e0       	ldi	r21, 0x0A	; 10

000006b2 <L_71>:
     6b2:	00 00       	nop
     6b4:	5a 95       	dec	r21
     6b6:	e9 f7       	brne	.-6      	; 0x6b2 <L_71>
      asm volatile(
        "NOP\n\t"
      );  
  } 
*/ 
}
     6b8:	08 95       	ret

000006ba <LCD_Wr>:
void LCD_RW(unsigned char data)
{
  if(data)
    LCD_CTRL_RW_PORT = LCD_CTRL_RW_PORT |(1<<LCD_CTRL_RW);    
  else
    LCD_CTRL_RW_PORT = LCD_CTRL_RW_PORT & ~(1<<LCD_CTRL_RW);    
     6ba:	28 98       	cbi	0x05, 0	; 5
  {
    LCD_CTRL_E_PORT = LCD_CTRL_E_PORT |(1<<LCD_CTRL_E);
  }
  else
  {
    LCD_CTRL_E_PORT = LCD_CTRL_E_PORT & ~(1<<LCD_CTRL_E);
     6bc:	2a 98       	cbi	0x05, 2	; 5
	"brne L_%=\n\t"		\
	::: "r21")

void LCD_ADELAY(void)
{
DELAY_A;
     6be:	5a e0       	ldi	r21, 0x0A	; 10

000006c0 <L_97>:
     6c0:	00 00       	nop
     6c2:	5a 95       	dec	r21
     6c4:	e9 f7       	brne	.-6      	; 0x6c0 <L_97>
{
  LCD_RW(0);
  LCD_ENABLE(0);	
  //LCD_DATA(data>>4);
  LCD_ADELAY();
	outb(LCD_DATA_DDR, inb(LCD_DATA_DDR)|0xF0);	// set data I/O lines to output (4bit)
     6c6:	9a b1       	in	r25, 0x0a	; 10
     6c8:	90 6f       	ori	r25, 0xF0	; 240
     6ca:	9a b9       	out	0x0a, r25	; 10
	outb(LCD_DATA_POUT, (inb(LCD_DATA_POUT)&0x0F) | (data&0xF0) );	// output data, high 4 bits
     6cc:	9b b1       	in	r25, 0x0b	; 11
     6ce:	28 2f       	mov	r18, r24
     6d0:	20 7f       	andi	r18, 0xF0	; 240
     6d2:	9f 70       	andi	r25, 0x0F	; 15
     6d4:	29 2b       	or	r18, r25
     6d6:	2b b9       	out	0x0b, r18	; 11
// PD3
void LCD_ENABLE(unsigned char data)
{
  if(data)
  {
    LCD_CTRL_E_PORT = LCD_CTRL_E_PORT |(1<<LCD_CTRL_E);
     6d8:	2a 9a       	sbi	0x05, 2	; 5
	"brne L_%=\n\t"		\
	::: "r21")

void LCD_ADELAY(void)
{
DELAY_A;
     6da:	5a e0       	ldi	r21, 0x0A	; 10

000006dc <L_118>:
     6dc:	00 00       	nop
     6de:	5a 95       	dec	r21
     6e0:	e9 f7       	brne	.-6      	; 0x6dc <L_118>
  {
    LCD_CTRL_E_PORT = LCD_CTRL_E_PORT |(1<<LCD_CTRL_E);
  }
  else
  {
    LCD_CTRL_E_PORT = LCD_CTRL_E_PORT & ~(1<<LCD_CTRL_E);
     6e2:	2a 98       	cbi	0x05, 2	; 5
  LCD_ADELAY();
  LCD_ENABLE(0);
	//DELAY_B;
  //LCD_DATA(0x0F &data);	
  //LCD_ADELAY();
	outb(LCD_DATA_POUT, (inb(LCD_DATA_POUT)&0x0F) | (data<<4) );	// output data, low 4 bits		
     6e4:	9b b1       	in	r25, 0x0b	; 11
     6e6:	82 95       	swap	r24
     6e8:	80 7f       	andi	r24, 0xF0	; 240
     6ea:	9f 70       	andi	r25, 0x0F	; 15
     6ec:	98 2b       	or	r25, r24
     6ee:	9b b9       	out	0x0b, r25	; 11
// PD3
void LCD_ENABLE(unsigned char data)
{
  if(data)
  {
    LCD_CTRL_E_PORT = LCD_CTRL_E_PORT |(1<<LCD_CTRL_E);
     6f0:	2a 9a       	sbi	0x05, 2	; 5
	"brne L_%=\n\t"		\
	::: "r21")

void LCD_ADELAY(void)
{
DELAY_A;
     6f2:	5a e0       	ldi	r21, 0x0A	; 10

000006f4 <L_145>:
     6f4:	00 00       	nop
     6f6:	5a 95       	dec	r21
     6f8:	e9 f7       	brne	.-6      	; 0x6f4 <L_145>
  {
    LCD_CTRL_E_PORT = LCD_CTRL_E_PORT |(1<<LCD_CTRL_E);
  }
  else
  {
    LCD_CTRL_E_PORT = LCD_CTRL_E_PORT & ~(1<<LCD_CTRL_E);
     6fa:	2a 98       	cbi	0x05, 2	; 5
	"brne L_%=\n\t"		\
	::: "r21")

void LCD_ADELAY(void)
{
DELAY_A;
     6fc:	5a e0       	ldi	r21, 0x0A	; 10

000006fe <L_157>:
     6fe:	00 00       	nop
     700:	5a 95       	dec	r21
     702:	e9 f7       	brne	.-6      	; 0x6fe <L_157>
      asm volatile(
        "NOP\n\t"
      );  
  } 	
*/	
}
     704:	08 95       	ret

00000706 <lcdControlWrite>:
  {
    LCD_CTRL_E_PORT = LCD_CTRL_E_PORT |(1<<LCD_CTRL_E);
  }
  else
  {
    LCD_CTRL_E_PORT = LCD_CTRL_E_PORT & ~(1<<LCD_CTRL_E);
     706:	2a 98       	cbi	0x05, 2	; 5
void LCD_RS(unsigned char data)
{
  if(data)
    LCD_CTRL_RS_PORT = LCD_CTRL_RS_PORT |(1<<LCD_CTRL_RS);
  else
    LCD_CTRL_RS_PORT = LCD_CTRL_RS_PORT & ~(1<<LCD_CTRL_RS);
     708:	5a 98       	cbi	0x0b, 2	; 11
	"brne L_%=\n\t"		\
	::: "r21")

void LCD_ADELAY(void)
{
DELAY_A;
     70a:	5a e0       	ldi	r21, 0x0A	; 10

0000070c <L_185>:
     70c:	00 00       	nop
     70e:	5a 95       	dec	r21
     710:	e9 f7       	brne	.-6      	; 0x70c <L_185>
void lcdControlWrite(u08 data) 
{
  LCD_ENABLE(0);
  LCD_RS(0);
	LCD_ADELAY();
  LCD_Wr(data);    
     712:	d3 df       	rcall	.-90     	; 0x6ba <LCD_Wr>
	"brne L_%=\n\t"		\
	::: "r21")

void LCD_ADELAY(void)
{
DELAY_A;
     714:	5a e0       	ldi	r21, 0x0A	; 10

00000716 <L_192>:
     716:	00 00       	nop
     718:	5a 95       	dec	r21
     71a:	e9 f7       	brne	.-6      	; 0x716 <L_192>
  {
    LCD_CTRL_E_PORT = LCD_CTRL_E_PORT |(1<<LCD_CTRL_E);
  }
  else
  {
    LCD_CTRL_E_PORT = LCD_CTRL_E_PORT & ~(1<<LCD_CTRL_E);
     71c:	5a e0       	ldi	r21, 0x0A	; 10

0000071e <L_197>:
     71e:	00 00       	nop
     720:	5a 95       	dec	r21
     722:	e9 f7       	brne	.-6      	; 0x71e <L_197>
     724:	5a e0       	ldi	r21, 0x0A	; 10

00000726 <L_202>:
     726:	00 00       	nop
     728:	5a 95       	dec	r21
     72a:	e9 f7       	brne	.-6      	; 0x726 <L_202>
     72c:	2a 98       	cbi	0x05, 2	; 5
  LCD_ADELAY();
  LCD_ADELAY();
  LCD_ADELAY();
  LCD_ENABLE(0);	

}
     72e:	08 95       	ret

00000730 <lcdDataWrite>:
  {
    LCD_CTRL_E_PORT = LCD_CTRL_E_PORT |(1<<LCD_CTRL_E);
  }
  else
  {
    LCD_CTRL_E_PORT = LCD_CTRL_E_PORT & ~(1<<LCD_CTRL_E);
     730:	2a 98       	cbi	0x05, 2	; 5

// PB4
void LCD_RS(unsigned char data)
{
  if(data)
    LCD_CTRL_RS_PORT = LCD_CTRL_RS_PORT |(1<<LCD_CTRL_RS);
     732:	5a 9a       	sbi	0x0b, 2	; 11
	"brne L_%=\n\t"		\
	::: "r21")

void LCD_ADELAY(void)
{
DELAY_A;
     734:	5a e0       	ldi	r21, 0x0A	; 10

00000736 <L_237>:
     736:	00 00       	nop
     738:	5a 95       	dec	r21
     73a:	e9 f7       	brne	.-6      	; 0x736 <L_237>
void lcdDataWrite(u08 data) 
{
  LCD_ENABLE(0);
  LCD_RS(1);
	LCD_ADELAY();	
  LCD_Wr(data);   
     73c:	be df       	rcall	.-132    	; 0x6ba <LCD_Wr>
	"brne L_%=\n\t"		\
	::: "r21")

void LCD_ADELAY(void)
{
DELAY_A;
     73e:	5a e0       	ldi	r21, 0x0A	; 10

00000740 <L_244>:
     740:	00 00       	nop
     742:	5a 95       	dec	r21
     744:	e9 f7       	brne	.-6      	; 0x740 <L_244>
  {
    LCD_CTRL_E_PORT = LCD_CTRL_E_PORT |(1<<LCD_CTRL_E);
  }
  else
  {
    LCD_CTRL_E_PORT = LCD_CTRL_E_PORT & ~(1<<LCD_CTRL_E);
     746:	5a e0       	ldi	r21, 0x0A	; 10

00000748 <L_249>:
     748:	00 00       	nop
     74a:	5a 95       	dec	r21
     74c:	e9 f7       	brne	.-6      	; 0x748 <L_249>
     74e:	5a e0       	ldi	r21, 0x0A	; 10

00000750 <L_254>:
     750:	00 00       	nop
     752:	5a 95       	dec	r21
     754:	e9 f7       	brne	.-6      	; 0x750 <L_254>
     756:	2a 98       	cbi	0x05, 2	; 5
   LCD_ADELAY();
  LCD_ADELAY();
  LCD_ADELAY();
  LCD_ENABLE(0);

}
     758:	08 95       	ret

0000075a <lcdGotoXY>:
void lcdGotoXY(u08 x, u08 y)
{
	register u08 DDRAMAddr;

	// remap lines into proper order
	switch(y)
     75a:	62 30       	cpi	r22, 0x02	; 2
     75c:	99 f0       	breq	.+38     	; 0x784 <L_297+0x16>
     75e:	63 30       	cpi	r22, 0x03	; 3
     760:	79 f0       	breq	.+30     	; 0x780 <L_297+0x12>
     762:	61 30       	cpi	r22, 0x01	; 1
     764:	59 f0       	breq	.+22     	; 0x77c <L_297+0xe>
	case 3: DDRAMAddr = LCD_LINE3_DDRAMADDR+x; break;
	default: DDRAMAddr = LCD_LINE0_DDRAMADDR+x;
	}

	// set data address
	lcdControlWrite(1<<LCD_DDRAM | DDRAMAddr);
     766:	80 68       	ori	r24, 0x80	; 128
     768:	ce df       	rcall	.-100    	; 0x706 <lcdControlWrite>
     76a:	80 e0       	ldi	r24, 0x00	; 0
	"brne L_%=\n\t"		\
	::: "r21")

void LCD_ADELAY(void)
{
DELAY_A;
     76c:	5a e0       	ldi	r21, 0x0A	; 10

0000076e <L_297>:
     76e:	00 00       	nop
     770:	5a 95       	dec	r21
     772:	e9 f7       	brne	.-6      	; 0x76e <L_297>
	}

	// set data address
	lcdControlWrite(1<<LCD_DDRAM | DDRAMAddr);
	u08 i;
  for(i=0;i<25;i++)
     774:	8f 5f       	subi	r24, 0xFF	; 255
     776:	89 31       	cpi	r24, 0x19	; 25
     778:	c9 f7       	brne	.-14     	; 0x76c <lcdGotoXY+0x12>
		LCD_ADELAY();


}
     77a:	08 95       	ret

	// remap lines into proper order
	switch(y)
	{
	case 0: DDRAMAddr = LCD_LINE0_DDRAMADDR+x; break;
	case 1: DDRAMAddr = LCD_LINE1_DDRAMADDR+x; break;
     77c:	80 5c       	subi	r24, 0xC0	; 192
     77e:	f3 cf       	rjmp	.-26     	; 0x766 <lcdGotoXY+0xc>
	case 2: DDRAMAddr = LCD_LINE2_DDRAMADDR+x; break;
	case 3: DDRAMAddr = LCD_LINE3_DDRAMADDR+x; break;
     780:	8c 5a       	subi	r24, 0xAC	; 172
     782:	f1 cf       	rjmp	.-30     	; 0x766 <lcdGotoXY+0xc>
	// remap lines into proper order
	switch(y)
	{
	case 0: DDRAMAddr = LCD_LINE0_DDRAMADDR+x; break;
	case 1: DDRAMAddr = LCD_LINE1_DDRAMADDR+x; break;
	case 2: DDRAMAddr = LCD_LINE2_DDRAMADDR+x; break;
     784:	8c 5e       	subi	r24, 0xEC	; 236
     786:	ef cf       	rjmp	.-34     	; 0x766 <lcdGotoXY+0xc>

00000788 <lcdHome>:
void lcdHome(void)
{
	// move cursor to home
	//lcdControlWrite(1<<LCD_HOME);
	//delay(60000);	// wait 60ms
	lcdGotoXY(0,0);
     788:	80 e0       	ldi	r24, 0x00	; 0
     78a:	60 e0       	ldi	r22, 0x00	; 0
     78c:	e6 df       	rcall	.-52     	; 0x75a <lcdGotoXY>
	
	//u08 i;
  //for(i=0;i<5;i++)
//		LCD_ADELAY();
}
     78e:	08 95       	ret

00000790 <lcdClear>:

u08 i;
void lcdClear(void)
{
     790:	0f 93       	push	r16
     792:	1f 93       	push	r17
	// clear LCD
	//lcdControlWrite(1<<LCD_CLR);
	//delay(60000);	// wait 60ms
	lcdprintat(0,0,"                    ");         
     794:	01 e4       	ldi	r16, 0x41	; 65
     796:	11 e0       	ldi	r17, 0x01	; 1
     798:	80 e0       	ldi	r24, 0x00	; 0
     79a:	90 e0       	ldi	r25, 0x00	; 0
     79c:	60 e0       	ldi	r22, 0x00	; 0
     79e:	70 e0       	ldi	r23, 0x00	; 0
     7a0:	a8 01       	movw	r20, r16
     7a2:	01 dd       	rcall	.-1534   	; 0x1a6 <lcdprintat>
	lcdprintat(0,1,"                    ");         
     7a4:	80 e0       	ldi	r24, 0x00	; 0
     7a6:	90 e0       	ldi	r25, 0x00	; 0
     7a8:	61 e0       	ldi	r22, 0x01	; 1
     7aa:	70 e0       	ldi	r23, 0x00	; 0
     7ac:	a8 01       	movw	r20, r16
     7ae:	fb dc       	rcall	.-1546   	; 0x1a6 <lcdprintat>
	
	lcdGotoXY(0,0);
     7b0:	80 e0       	ldi	r24, 0x00	; 0
     7b2:	60 e0       	ldi	r22, 0x00	; 0
     7b4:	d2 df       	rcall	.-92     	; 0x75a <lcdGotoXY>
/*	
	u08 i;
  for(i=0;i<45;i++)
		LCD_ADELAY();
*/		
}
     7b6:	1f 91       	pop	r17
     7b8:	0f 91       	pop	r16
     7ba:	08 95       	ret

000007bc <lcdInitHW>:
		LCD_CTRL_E_DDR	  = LCD_CTRL_E_DDR	| (1<<LCD_CTRL_E);
		LCD_CTRL_RS_DDR	  = LCD_CTRL_RS_DDR	| (1<<LCD_CTRL_RS);
    LCD_DATA_DDR      = LCD_DATA_DDR    | (0xF0);
*/		
		// initialize LCD control lines
		cbi(LCD_CTRL_RS_PORT, LCD_CTRL_RS);
     7bc:	5a 98       	cbi	0x0b, 2	; 11
		cbi(LCD_CTRL_RW_PORT, LCD_CTRL_RW);
     7be:	28 98       	cbi	0x05, 0	; 5
		cbi(LCD_CTRL_E_PORT, LCD_CTRL_E);
     7c0:	2a 98       	cbi	0x05, 2	; 5
		// initialize LCD control lines to output
		sbi(LCD_CTRL_RS_DDR, LCD_CTRL_RS);
     7c2:	52 9a       	sbi	0x0a, 2	; 10
		sbi(LCD_CTRL_RW_DDR, LCD_CTRL_RW);
     7c4:	20 9a       	sbi	0x04, 0	; 4
		sbi(LCD_CTRL_E_DDR, LCD_CTRL_E);
     7c6:	22 9a       	sbi	0x04, 2	; 4
		outb(LCD_DATA_DDR, inb(LCD_DATA_DDR)&0x0F);		// set data I/O lines to input (4bit)
     7c8:	8a b1       	in	r24, 0x0a	; 10
     7ca:	8f 70       	andi	r24, 0x0F	; 15
     7cc:	8a b9       	out	0x0a, r24	; 10
		outb(LCD_DATA_POUT, inb(LCD_DATA_POUT)|0xF0);	// set pull-ups to on (4bit)
     7ce:	8b b1       	in	r24, 0x0b	; 11
     7d0:	80 6f       	ori	r24, 0xF0	; 240
     7d2:	8b b9       	out	0x0b, r24	; 11
  LCD_ENABLE(0);
  LCD_ADELAY();
*/

	// LCD function set
	lcdControlWrite(LCD_FUNCTION_DEFAULT);
     7d4:	88 e2       	ldi	r24, 0x28	; 40
     7d6:	97 df       	rcall	.-210    	; 0x706 <lcdControlWrite>
	// clear LCD
	//lcdControlWrite(1<<LCD_CLR);
	delay(60000);	// wait 60ms
     7d8:	60 e6       	ldi	r22, 0x60	; 96
     7da:	7a ee       	ldi	r23, 0xEA	; 234
     7dc:	80 e0       	ldi	r24, 0x00	; 0
     7de:	90 e0       	ldi	r25, 0x00	; 0
     7e0:	4e dc       	rcall	.-1892   	; 0x7e <delay>
	// set entry mode
	lcdControlWrite(1<<LCD_ENTRY_MODE | 1<<LCD_ENTRY_INC);
     7e2:	86 e0       	ldi	r24, 0x06	; 6
     7e4:	90 df       	rcall	.-224    	; 0x706 <lcdControlWrite>
	//lcdControlWrite(1<<LCD_ENTRY_INC);
	// set display to on
	//lcdControlWrite(1<<LCD_ON_CTRL | 1<<LCD_ON_DISPLAY | 1<<LCD_ON_BLINK);
	lcdControlWrite(1<<LCD_ON_CTRL | 1<<LCD_ON_DISPLAY );
     7e6:	8c e0       	ldi	r24, 0x0C	; 12
     7e8:	8e df       	rcall	.-228    	; 0x706 <lcdControlWrite>
	// move cursor to home
	lcdControlWrite(1<<LCD_HOME);
     7ea:	82 e0       	ldi	r24, 0x02	; 2
     7ec:	8c df       	rcall	.-232    	; 0x706 <lcdControlWrite>
	// set data address to 0
	lcdControlWrite(1<<LCD_DDRAM | 0x00);
     7ee:	80 e8       	ldi	r24, 0x80	; 128
     7f0:	8a df       	rcall	.-236    	; 0x706 <lcdControlWrite>
}
     7f2:	08 95       	ret

000007f4 <lcdInit>:
*/

void lcdInit(void)
{
	// initialize hardware
	lcdInitHW();
     7f4:	e3 df       	rcall	.-58     	; 0x7bc <lcdInitHW>
	// LCD function set
	lcdClear();
     7f6:	cc df       	rcall	.-104    	; 0x790 <lcdClear>
	delay(60000);	// wait 60ms	
     7f8:	60 e6       	ldi	r22, 0x60	; 96
     7fa:	7a ee       	ldi	r23, 0xEA	; 234
     7fc:	80 e0       	ldi	r24, 0x00	; 0
     7fe:	90 e0       	ldi	r25, 0x00	; 0
     800:	3e dc       	rcall	.-1924   	; 0x7e <delay>
	lcdHome();
     802:	c2 df       	rcall	.-124    	; 0x788 <lcdHome>
	delay(60000);	// wait 60ms	
     804:	60 e6       	ldi	r22, 0x60	; 96
     806:	7a ee       	ldi	r23, 0xEA	; 234
     808:	80 e0       	ldi	r24, 0x00	; 0
     80a:	90 e0       	ldi	r25, 0x00	; 0
     80c:	38 dc       	rcall	.-1936   	; 0x7e <delay>
}
     80e:	08 95       	ret

00000810 <i2cSetBitrate>:
	// SCL freq = F_CPU/(16+2*TWBR))
	#ifdef TWPS0
		// for processors with additional bitrate division (mega128)
		// SCL freq = F_CPU/(16+2*TWBR*4^TWPS)
		// set TWPS to zero
		TWSR &= ~(1<<TWPS0);
     810:	20 91 b9 00 	lds	r18, 0x00B9
     814:	2e 7f       	andi	r18, 0xFE	; 254
     816:	20 93 b9 00 	sts	0x00B9, r18
		TWSR &= ~(1<< TWPS1);
     81a:	20 91 b9 00 	lds	r18, 0x00B9
     81e:	2d 7f       	andi	r18, 0xFD	; 253
     820:	20 93 b9 00 	sts	0x00B9, r18
	#endif
	// calculate bitrate division	
	bitrate_div = ((F_CPU/1000l)/bitrateKHz);
     824:	9c 01       	movw	r18, r24
     826:	40 e0       	ldi	r20, 0x00	; 0
     828:	50 e0       	ldi	r21, 0x00	; 0
     82a:	60 e4       	ldi	r22, 0x40	; 64
     82c:	7f e1       	ldi	r23, 0x1F	; 31
     82e:	80 e0       	ldi	r24, 0x00	; 0
     830:	90 e0       	ldi	r25, 0x00	; 0
     832:	a3 db       	rcall	.-2234   	; 0xffffff7a <__eeprom_end+0xff7eff7a>
	if(bitrate_div >= 16)
     834:	20 31       	cpi	r18, 0x10	; 16
     836:	30 f0       	brcs	.+12     	; 0x844 <i2cSetBitrate+0x34>
		bitrate_div = (bitrate_div-16)/2;
     838:	82 2f       	mov	r24, r18
     83a:	90 e0       	ldi	r25, 0x00	; 0
     83c:	40 97       	sbiw	r24, 0x10	; 16
     83e:	95 95       	asr	r25
     840:	87 95       	ror	r24
     842:	28 2f       	mov	r18, r24
	TWBR = bitrate_div;  
     844:	20 93 b8 00 	sts	0x00B8, r18
}
     848:	08 95       	ret

0000084a <i2cInit>:
	// set pull-up resistors on I2C bus pins
	// TODO: should #ifdef these
//	PORTC |= (1<<4);	// i2c SCL on ATmega163,323,16,32,etc
//	PORTC |= (1<<5);	// i2c SDA on ATmega163,323,16,32,etc

	PORTC |= (1<<4);	// i2c SCL on ATmega163,323,16,32,etc
     84a:	44 9a       	sbi	0x08, 4	; 8
	PORTC |= (1<<5);	// i2c SDA on ATmega163,323,16,32,etc
     84c:	45 9a       	sbi	0x08, 5	; 8

	// set i2c bit rate to 100KHz
	i2cSetBitrate(100);
     84e:	84 e6       	ldi	r24, 0x64	; 100
     850:	90 e0       	ldi	r25, 0x00	; 0
     852:	de df       	rcall	.-68     	; 0x810 <i2cSetBitrate>
	// enable TWI (two-wire interface)
	TWCR|= (1<<TWEN);
     854:	ec eb       	ldi	r30, 0xBC	; 188
     856:	f0 e0       	ldi	r31, 0x00	; 0
     858:	80 81       	ld	r24, Z
     85a:	84 60       	ori	r24, 0x04	; 4
     85c:	80 83       	st	Z, r24
	// set state
	// enable TWI interrupt and slave address ACK
//	sbi(TWCR, TWIE);
	TWCR |= (1<<TWEA);
     85e:	80 81       	ld	r24, Z
     860:	80 64       	ori	r24, 0x40	; 64
     862:	80 83       	st	Z, r24
}

void i2cSetLocalDeviceAddr(u08 deviceAddr, u08 genCallEn)
{
	// set local device address (used in slave mode only)
	TWAR =  ((deviceAddr&0xFE) | (genCallEn?1:0));
     864:	81 e0       	ldi	r24, 0x01	; 1
     866:	80 93 ba 00 	sts	0x00BA, r24
	TWCR |= (1<<TWEA);
	//outb(TWCR, (inb(TWCR)&TWCR_CMD_MASK)|BV(TWINT)|BV(TWEA));
	// enable interrupts
  i2cSetLocalDeviceAddr(0x01,1);  
  //TWCR = 0; 
}
     86a:	08 95       	ret

0000086c <i2cSetLocalDeviceAddr>:
}

void i2cSetLocalDeviceAddr(u08 deviceAddr, u08 genCallEn)
{
	// set local device address (used in slave mode only)
	TWAR =  ((deviceAddr&0xFE) | (genCallEn?1:0));
     86c:	90 e0       	ldi	r25, 0x00	; 0
     86e:	61 11       	cpse	r22, r1
     870:	91 e0       	ldi	r25, 0x01	; 1
     872:	8e 7f       	andi	r24, 0xFE	; 254
     874:	98 2b       	or	r25, r24
     876:	90 93 ba 00 	sts	0x00BA, r25
}
     87a:	08 95       	ret

0000087c <i2cSendStart>:

inline void i2cSendStart(void)
{
	// send start condition
	TWCR =  ((TWCR)&TWCR_CMD_MASK)|(1<<TWINT)|(1<<TWSTA);
     87c:	ec eb       	ldi	r30, 0xBC	; 188
     87e:	f0 e0       	ldi	r31, 0x00	; 0
     880:	80 81       	ld	r24, Z
     882:	8f 70       	andi	r24, 0x0F	; 15
     884:	80 6a       	ori	r24, 0xA0	; 160
     886:	80 83       	st	Z, r24
}
     888:	08 95       	ret

0000088a <i2cSendStop>:

inline void i2cSendStop(void)
{
	// transmit stop condition
	// leave with TWEA on for slave receiving
	TWCR = ((TWCR)&TWCR_CMD_MASK)|(1<<TWINT)|(1<<TWEA)|(1<<TWSTO);
     88a:	ec eb       	ldi	r30, 0xBC	; 188
     88c:	f0 e0       	ldi	r31, 0x00	; 0
     88e:	80 81       	ld	r24, Z
     890:	8f 70       	andi	r24, 0x0F	; 15
     892:	80 6d       	ori	r24, 0xD0	; 208
     894:	80 83       	st	Z, r24
}
     896:	08 95       	ret

00000898 <i2cWaitForComplete>:

inline void i2cWaitForComplete(void)
{
	// wait for i2c interface to complete operation
	while( !((TWCR) & (1<<TWINT)) );
     898:	80 91 bc 00 	lds	r24, 0x00BC
     89c:	87 ff       	sbrs	r24, 7
     89e:	fc cf       	rjmp	.-8      	; 0x898 <i2cWaitForComplete>
}
     8a0:	08 95       	ret

000008a2 <i2cSendByte>:
u08 d;

  d = 20;
  error = 0;
	// save data to the TWDR
	TWDR = data;
     8a2:	80 93 bb 00 	sts	0x00BB, r24
	// begin send
	TWCR = ((TWCR)&TWCR_CMD_MASK)|(1<<TWINT);
     8a6:	80 91 bc 00 	lds	r24, 0x00BC
     8aa:	8f 70       	andi	r24, 0x0F	; 15
     8ac:	80 68       	ori	r24, 0x80	; 128
     8ae:	80 93 bc 00 	sts	0x00BC, r24

  while (!(TWCR & (1<<TWINT)) && d) 
     8b2:	80 91 bc 00 	lds	r24, 0x00BC
     8b6:	87 fd       	sbrc	r24, 7
     8b8:	07 c0       	rjmp	.+14     	; 0x8c8 <i2cSendByte+0x26>
     8ba:	94 e1       	ldi	r25, 0x14	; 20
     8bc:	80 91 bc 00 	lds	r24, 0x00BC
     8c0:	87 fd       	sbrc	r24, 7
     8c2:	02 c0       	rjmp	.+4      	; 0x8c8 <i2cSendByte+0x26>
  {
    d--;
     8c4:	91 50       	subi	r25, 0x01	; 1
	// save data to the TWDR
	TWDR = data;
	// begin send
	TWCR = ((TWCR)&TWCR_CMD_MASK)|(1<<TWINT);

  while (!(TWCR & (1<<TWINT)) && d) 
     8c6:	d1 f7       	brne	.-12     	; 0x8bc <i2cSendByte+0x1a>
     8c8:	08 95       	ret

000008ca <i2cReceiveByte>:
}

inline void i2cReceiveByte(u08 ackFlag)
{
	// begin receive over i2c
	if( ackFlag )
     8ca:	88 23       	and	r24, r24
     8cc:	39 f4       	brne	.+14     	; 0x8dc <i2cReceiveByte+0x12>
		TWCR = ((TWCR)&TWCR_CMD_MASK)|(1<<TWINT)|(1<<TWEA);
	}
	else
	{
		// ackFlag = FALSE: NACK the recevied data
		TWCR = ((TWCR)&TWCR_CMD_MASK)|(1<<TWINT);
     8ce:	80 91 bc 00 	lds	r24, 0x00BC
     8d2:	8f 70       	andi	r24, 0x0F	; 15
     8d4:	80 68       	ori	r24, 0x80	; 128
     8d6:	80 93 bc 00 	sts	0x00BC, r24
     8da:	08 95       	ret
{
	// begin receive over i2c
	if( ackFlag )
	{
		// ackFlag = TRUE: ACK the recevied data
		TWCR = ((TWCR)&TWCR_CMD_MASK)|(1<<TWINT)|(1<<TWEA);
     8dc:	80 91 bc 00 	lds	r24, 0x00BC
     8e0:	8f 70       	andi	r24, 0x0F	; 15
     8e2:	80 6c       	ori	r24, 0xC0	; 192
     8e4:	80 93 bc 00 	sts	0x00BC, r24
     8e8:	08 95       	ret

000008ea <i2cGetReceivedByte>:
}

inline u08 i2cGetReceivedByte(void)
{
	// retieve received data byte from i2c TWDR
	return( TWDR );
     8ea:	80 91 bb 00 	lds	r24, 0x00BB
}
     8ee:	08 95       	ret

000008f0 <i2cGetStatus>:

inline u08 i2cGetStatus(void)
{
	// retieve current i2c status from i2c TWSR
	return(TWSR);
     8f0:	80 91 b9 00 	lds	r24, 0x00B9
}
     8f4:	08 95       	ret

000008f6 <i2cMasterSendNI>:

u08 i2cMasterSendNI(u08 deviceAddr, u08 length, u08* data)
{
     8f6:	98 2f       	mov	r25, r24
     8f8:	fa 01       	movw	r30, r20
  // *************************************

	u08 retval = I2C_OK;

	// disable TWI interrupt
	TWCR &= ~(1<<TWIE);
     8fa:	80 91 bc 00 	lds	r24, 0x00BC
     8fe:	8e 7f       	andi	r24, 0xFE	; 254
     900:	80 93 bc 00 	sts	0x00BC, r24
}

inline void i2cSendStart(void)
{
	// send start condition
	TWCR =  ((TWCR)&TWCR_CMD_MASK)|(1<<TWINT)|(1<<TWSTA);
     904:	80 91 bc 00 	lds	r24, 0x00BC
     908:	8f 70       	andi	r24, 0x0F	; 15
     90a:	80 6a       	ori	r24, 0xA0	; 160
     90c:	80 93 bc 00 	sts	0x00BC, r24
}

inline void i2cWaitForComplete(void)
{
	// wait for i2c interface to complete operation
	while( !((TWCR) & (1<<TWINT)) );
     910:	80 91 bc 00 	lds	r24, 0x00BC
     914:	87 ff       	sbrs	r24, 7
     916:	fc cf       	rjmp	.-8      	; 0x910 <i2cMasterSendNI+0x1a>
	// send start condition
	i2cSendStart();
	i2cWaitForComplete();

	// send device address with write
	i2cSendByte( (deviceAddr<<1) & 0xFE );
     918:	89 2f       	mov	r24, r25
     91a:	90 e0       	ldi	r25, 0x00	; 0
     91c:	88 0f       	add	r24, r24
     91e:	99 1f       	adc	r25, r25
u08 d;

  d = 20;
  error = 0;
	// save data to the TWDR
	TWDR = data;
     920:	80 93 bb 00 	sts	0x00BB, r24
	// begin send
	TWCR = ((TWCR)&TWCR_CMD_MASK)|(1<<TWINT);
     924:	80 91 bc 00 	lds	r24, 0x00BC
     928:	8f 70       	andi	r24, 0x0F	; 15
     92a:	80 68       	ori	r24, 0x80	; 128
     92c:	80 93 bc 00 	sts	0x00BC, r24

  while (!(TWCR & (1<<TWINT)) && d) 
     930:	80 91 bc 00 	lds	r24, 0x00BC
     934:	87 fd       	sbrc	r24, 7
     936:	07 c0       	rjmp	.+14     	; 0x946 <i2cMasterSendNI+0x50>
     938:	94 e1       	ldi	r25, 0x14	; 20
     93a:	80 91 bc 00 	lds	r24, 0x00BC
     93e:	87 fd       	sbrc	r24, 7
     940:	02 c0       	rjmp	.+4      	; 0x946 <i2cMasterSendNI+0x50>
  {
    d--;
     942:	91 50       	subi	r25, 0x01	; 1
	// save data to the TWDR
	TWDR = data;
	// begin send
	TWCR = ((TWCR)&TWCR_CMD_MASK)|(1<<TWINT);

  while (!(TWCR & (1<<TWINT)) && d) 
     944:	d1 f7       	brne	.-12     	; 0x93a <i2cMasterSendNI+0x44>
}

inline void i2cWaitForComplete(void)
{
	// wait for i2c interface to complete operation
	while( !((TWCR) & (1<<TWINT)) );
     946:	80 91 bc 00 	lds	r24, 0x00BC
     94a:	87 ff       	sbrs	r24, 7
     94c:	fc cf       	rjmp	.-8      	; 0x946 <i2cMasterSendNI+0x50>
	// send device address with write
	i2cSendByte( (deviceAddr<<1) & 0xFE );
	i2cWaitForComplete();

	// check if device is present and live
	if(TWSR == TW_MT_SLA_ACK)
     94e:	80 91 b9 00 	lds	r24, 0x00B9
     952:	88 31       	cpi	r24, 0x18	; 24
     954:	b9 f0       	breq	.+46     	; 0x984 <i2cMasterSendNI+0x8e>
     956:	91 e0       	ldi	r25, 0x01	; 1

inline void i2cSendStop(void)
{
	// transmit stop condition
	// leave with TWEA on for slave receiving
	TWCR = ((TWCR)&TWCR_CMD_MASK)|(1<<TWINT)|(1<<TWEA)|(1<<TWSTO);
     958:	80 91 bc 00 	lds	r24, 0x00BC
     95c:	8f 70       	andi	r24, 0x0F	; 15
     95e:	80 6d       	ori	r24, 0xD0	; 208
     960:	80 93 bc 00 	sts	0x00BC, r24
	}

	// transmit stop condition
	// leave with TWEA on for slave receiving
	i2cSendStop();
	while( !(TWCR & (1<<TWSTO)));
     964:	80 91 bc 00 	lds	r24, 0x00BC
     968:	84 ff       	sbrs	r24, 4
     96a:	fc cf       	rjmp	.-8      	; 0x964 <i2cMasterSendNI+0x6e>

	// enable TWI interrupt
	TWCR |= (1<<TWIE);
     96c:	80 91 bc 00 	lds	r24, 0x00BC
     970:	81 60       	ori	r24, 0x01	; 1
     972:	80 93 bc 00 	sts	0x00BC, r24
  //MODEM_RESTART;
  // *************************************


	return retval;
}
     976:	89 2f       	mov	r24, r25
     978:	08 95       	ret
}

inline void i2cWaitForComplete(void)
{
	// wait for i2c interface to complete operation
	while( !((TWCR) & (1<<TWINT)) );
     97a:	80 91 bc 00 	lds	r24, 0x00BC
     97e:	87 ff       	sbrs	r24, 7
     980:	fc cf       	rjmp	.-8      	; 0x97a <i2cMasterSendNI+0x84>
		// send data
		while(length)
		{
			i2cSendByte( *data++ );
			i2cWaitForComplete();
			length--;
     982:	61 50       	subi	r22, 0x01	; 1

	// check if device is present and live
	if(TWSR == TW_MT_SLA_ACK)
	{
		// send data
		while(length)
     984:	66 23       	and	r22, r22
     986:	c9 f0       	breq	.+50     	; 0x9ba <i2cMasterSendNI+0xc4>
		{
			i2cSendByte( *data++ );
     988:	81 91       	ld	r24, Z+
u08 d;

  d = 20;
  error = 0;
	// save data to the TWDR
	TWDR = data;
     98a:	80 93 bb 00 	sts	0x00BB, r24
	// begin send
	TWCR = ((TWCR)&TWCR_CMD_MASK)|(1<<TWINT);
     98e:	80 91 bc 00 	lds	r24, 0x00BC
     992:	8f 70       	andi	r24, 0x0F	; 15
     994:	80 68       	ori	r24, 0x80	; 128
     996:	80 93 bc 00 	sts	0x00BC, r24

  while (!(TWCR & (1<<TWINT)) && d) 
     99a:	80 91 bc 00 	lds	r24, 0x00BC
     99e:	87 fd       	sbrc	r24, 7
     9a0:	ec cf       	rjmp	.-40     	; 0x97a <i2cMasterSendNI+0x84>
     9a2:	94 e1       	ldi	r25, 0x14	; 20
     9a4:	80 91 bc 00 	lds	r24, 0x00BC
     9a8:	87 fd       	sbrc	r24, 7
     9aa:	e7 cf       	rjmp	.-50     	; 0x97a <i2cMasterSendNI+0x84>
  {
    d--;
     9ac:	91 50       	subi	r25, 0x01	; 1
	// save data to the TWDR
	TWDR = data;
	// begin send
	TWCR = ((TWCR)&TWCR_CMD_MASK)|(1<<TWINT);

  while (!(TWCR & (1<<TWINT)) && d) 
     9ae:	d1 f7       	brne	.-12     	; 0x9a4 <i2cMasterSendNI+0xae>
}

inline void i2cWaitForComplete(void)
{
	// wait for i2c interface to complete operation
	while( !((TWCR) & (1<<TWINT)) );
     9b0:	80 91 bc 00 	lds	r24, 0x00BC
     9b4:	87 ff       	sbrs	r24, 7
     9b6:	e1 cf       	rjmp	.-62     	; 0x97a <i2cMasterSendNI+0x84>
     9b8:	e4 cf       	rjmp	.-56     	; 0x982 <i2cMasterSendNI+0x8c>

	// check if device is present and live
	if(TWSR == TW_MT_SLA_ACK)
	{
		// send data
		while(length)
     9ba:	90 e0       	ldi	r25, 0x00	; 0
     9bc:	cd cf       	rjmp	.-102    	; 0x958 <i2cMasterSendNI+0x62>

000009be <i2cMasterReceiveNI>:

	return retval;
}

u08 i2cMasterReceiveNI(u08 deviceAddr, u08 length, u08 *data)
{
     9be:	28 2f       	mov	r18, r24
     9c0:	da 01       	movw	r26, r20
  // *************************************

	u08 retval = I2C_OK;

	// disable TWI interrupt
	TWCR &= ~(1<<TWIE);
     9c2:	80 91 bc 00 	lds	r24, 0x00BC
     9c6:	8e 7f       	andi	r24, 0xFE	; 254
     9c8:	80 93 bc 00 	sts	0x00BC, r24
}

inline void i2cSendStart(void)
{
	// send start condition
	TWCR =  ((TWCR)&TWCR_CMD_MASK)|(1<<TWINT)|(1<<TWSTA);
     9cc:	80 91 bc 00 	lds	r24, 0x00BC
     9d0:	8f 70       	andi	r24, 0x0F	; 15
     9d2:	80 6a       	ori	r24, 0xA0	; 160
     9d4:	80 93 bc 00 	sts	0x00BC, r24
}

inline void i2cWaitForComplete(void)
{
	// wait for i2c interface to complete operation
	while( !((TWCR) & (1<<TWINT)) );
     9d8:	80 91 bc 00 	lds	r24, 0x00BC
     9dc:	87 ff       	sbrs	r24, 7
     9de:	fc cf       	rjmp	.-8      	; 0x9d8 <i2cMasterReceiveNI+0x1a>
	// send start condition
	i2cSendStart();
	i2cWaitForComplete();

	// send device address with read
	i2cSendByte( (deviceAddr<<1) | 0x01 );
     9e0:	22 0f       	add	r18, r18
     9e2:	21 60       	ori	r18, 0x01	; 1
u08 d;

  d = 20;
  error = 0;
	// save data to the TWDR
	TWDR = data;
     9e4:	20 93 bb 00 	sts	0x00BB, r18
	// begin send
	TWCR = ((TWCR)&TWCR_CMD_MASK)|(1<<TWINT);
     9e8:	80 91 bc 00 	lds	r24, 0x00BC
     9ec:	8f 70       	andi	r24, 0x0F	; 15
     9ee:	80 68       	ori	r24, 0x80	; 128
     9f0:	80 93 bc 00 	sts	0x00BC, r24

  while (!(TWCR & (1<<TWINT)) && d) 
     9f4:	80 91 bc 00 	lds	r24, 0x00BC
     9f8:	87 fd       	sbrc	r24, 7
     9fa:	07 c0       	rjmp	.+14     	; 0xa0a <i2cMasterReceiveNI+0x4c>
     9fc:	24 e1       	ldi	r18, 0x14	; 20
     9fe:	80 91 bc 00 	lds	r24, 0x00BC
     a02:	87 fd       	sbrc	r24, 7
     a04:	02 c0       	rjmp	.+4      	; 0xa0a <i2cMasterReceiveNI+0x4c>
  {
    d--;
     a06:	21 50       	subi	r18, 0x01	; 1
	// save data to the TWDR
	TWDR = data;
	// begin send
	TWCR = ((TWCR)&TWCR_CMD_MASK)|(1<<TWINT);

  while (!(TWCR & (1<<TWINT)) && d) 
     a08:	d1 f7       	brne	.-12     	; 0x9fe <i2cMasterReceiveNI+0x40>
}

inline void i2cWaitForComplete(void)
{
	// wait for i2c interface to complete operation
	while( !((TWCR) & (1<<TWINT)) );
     a0a:	80 91 bc 00 	lds	r24, 0x00BC
     a0e:	87 ff       	sbrs	r24, 7
     a10:	fc cf       	rjmp	.-8      	; 0xa0a <i2cMasterReceiveNI+0x4c>
	// send device address with read
	i2cSendByte( (deviceAddr<<1) | 0x01 );
	i2cWaitForComplete();

	// check if device is present and live
	if(TWSR == TW_MR_SLA_ACK)
     a12:	80 91 b9 00 	lds	r24, 0x00B9
     a16:	80 34       	cpi	r24, 0x40	; 64
     a18:	71 f0       	breq	.+28     	; 0xa36 <i2cMasterReceiveNI+0x78>
     a1a:	91 e0       	ldi	r25, 0x01	; 1

inline void i2cSendStop(void)
{
	// transmit stop condition
	// leave with TWEA on for slave receiving
	TWCR = ((TWCR)&TWCR_CMD_MASK)|(1<<TWINT)|(1<<TWEA)|(1<<TWSTO);
     a1c:	80 91 bc 00 	lds	r24, 0x00BC
     a20:	8f 70       	andi	r24, 0x0F	; 15
     a22:	80 6d       	ori	r24, 0xD0	; 208
     a24:	80 93 bc 00 	sts	0x00BC, r24
	// transmit stop condition
	// leave with TWEA on for slave receiving
	i2cSendStop();

	// enable TWI interrupt
	TWCR |= (1<<TWIE);
     a28:	80 91 bc 00 	lds	r24, 0x00BC
     a2c:	81 60       	ori	r24, 0x01	; 1
     a2e:	80 93 bc 00 	sts	0x00BC, r24
  //     MODEM FSSSSUP the I2C Bus
  //       MODEM_RESTART;
  // *************************************

	return retval;
}
     a32:	89 2f       	mov	r24, r25
     a34:	08 95       	ret

	// check if device is present and live
	if(TWSR == TW_MR_SLA_ACK)
	{
		// accept receive data and ack it
		while(length > 1)
     a36:	62 30       	cpi	r22, 0x02	; 2
     a38:	c0 f0       	brcs	.+48     	; 0xa6a <i2cMasterReceiveNI+0xac>
     a3a:	26 2f       	mov	r18, r22
     a3c:	fd 01       	movw	r30, r26
{
	// begin receive over i2c
	if( ackFlag )
	{
		// ackFlag = TRUE: ACK the recevied data
		TWCR = ((TWCR)&TWCR_CMD_MASK)|(1<<TWINT)|(1<<TWEA);
     a3e:	80 91 bc 00 	lds	r24, 0x00BC
     a42:	8f 70       	andi	r24, 0x0F	; 15
     a44:	80 6c       	ori	r24, 0xC0	; 192
     a46:	80 93 bc 00 	sts	0x00BC, r24
}

inline void i2cWaitForComplete(void)
{
	// wait for i2c interface to complete operation
	while( !((TWCR) & (1<<TWINT)) );
     a4a:	80 91 bc 00 	lds	r24, 0x00BC
     a4e:	87 ff       	sbrs	r24, 7
     a50:	fc cf       	rjmp	.-8      	; 0xa4a <i2cMasterReceiveNI+0x8c>
}

inline u08 i2cGetReceivedByte(void)
{
	// retieve received data byte from i2c TWDR
	return( TWDR );
     a52:	80 91 bb 00 	lds	r24, 0x00BB
		// accept receive data and ack it
		while(length > 1)
		{
			i2cReceiveByte(TRUE);
			i2cWaitForComplete();
			*data++ = i2cGetReceivedByte();
     a56:	81 93       	st	Z+, r24
			// decrement length
			length--;
     a58:	21 50       	subi	r18, 0x01	; 1

	// check if device is present and live
	if(TWSR == TW_MR_SLA_ACK)
	{
		// accept receive data and ack it
		while(length > 1)
     a5a:	22 30       	cpi	r18, 0x02	; 2
     a5c:	80 f7       	brcc	.-32     	; 0xa3e <i2cMasterReceiveNI+0x80>
     a5e:	62 50       	subi	r22, 0x02	; 2
     a60:	86 2f       	mov	r24, r22
     a62:	90 e0       	ldi	r25, 0x00	; 0
     a64:	01 96       	adiw	r24, 0x01	; 1
     a66:	a8 0f       	add	r26, r24
     a68:	b9 1f       	adc	r27, r25
		TWCR = ((TWCR)&TWCR_CMD_MASK)|(1<<TWINT)|(1<<TWEA);
	}
	else
	{
		// ackFlag = FALSE: NACK the recevied data
		TWCR = ((TWCR)&TWCR_CMD_MASK)|(1<<TWINT);
     a6a:	80 91 bc 00 	lds	r24, 0x00BC
     a6e:	8f 70       	andi	r24, 0x0F	; 15
     a70:	80 68       	ori	r24, 0x80	; 128
     a72:	80 93 bc 00 	sts	0x00BC, r24
}

inline void i2cWaitForComplete(void)
{
	// wait for i2c interface to complete operation
	while( !((TWCR) & (1<<TWINT)) );
     a76:	80 91 bc 00 	lds	r24, 0x00BC
     a7a:	87 ff       	sbrs	r24, 7
     a7c:	fc cf       	rjmp	.-8      	; 0xa76 <i2cMasterReceiveNI+0xb8>
}

inline u08 i2cGetReceivedByte(void)
{
	// retieve received data byte from i2c TWDR
	return( TWDR );
     a7e:	80 91 bb 00 	lds	r24, 0x00BB
		}

		// accept receive data and nack it (last-byte signal)
		i2cReceiveByte(FALSE);
		i2cWaitForComplete();
		*data++ = i2cGetReceivedByte();
     a82:	8c 93       	st	X, r24
     a84:	90 e0       	ldi	r25, 0x00	; 0
     a86:	ca cf       	rjmp	.-108    	; 0xa1c <i2cMasterReceiveNI+0x5e>

00000a88 <rprintfInit>:
//**************************************************
// void rprintfInit(void (*putchar_func)(unsigned char c))
//**************************************************
void rprintfInit(void (*putchar_func)(unsigned char c))
{
	rputchar = putchar_func;
     a88:	90 93 b9 01 	sts	0x01B9, r25
     a8c:	80 93 b8 01 	sts	0x01B8, r24
}
     a90:	08 95       	ret

00000a92 <rprintf>:

//**************************************************
// void rprintf(u08 *string)
//**************************************************
void rprintf(u08 *string)
{
     a92:	cf 93       	push	r28
     a94:	df 93       	push	r29
     a96:	ec 01       	movw	r28, r24
  while(*(string) != 0x00)
     a98:	88 81       	ld	r24, Y
     a9a:	88 23       	and	r24, r24
     a9c:	49 f0       	breq	.+18     	; 0xab0 <rprintf+0x1e>
  {
    rputchar(*string++);    
     a9e:	21 96       	adiw	r28, 0x01	; 1
     aa0:	e0 91 b8 01 	lds	r30, 0x01B8
     aa4:	f0 91 b9 01 	lds	r31, 0x01B9
     aa8:	09 95       	icall
//**************************************************
// void rprintf(u08 *string)
//**************************************************
void rprintf(u08 *string)
{
  while(*(string) != 0x00)
     aaa:	88 81       	ld	r24, Y
     aac:	88 23       	and	r24, r24
     aae:	b9 f7       	brne	.-18     	; 0xa9e <rprintf+0xc>
  {
    rputchar(*string++);    
  }
}
     ab0:	df 91       	pop	r29
     ab2:	cf 91       	pop	r28
     ab4:	08 95       	ret

00000ab6 <rprintf_rom>:

//**************************************************
// void rprintf_rom(const u08 *string)
//**************************************************
void rprintf_rom(const u08 *string)
{
     ab6:	cf 93       	push	r28
     ab8:	df 93       	push	r29
     aba:	ec 01       	movw	r28, r24
  while(pgm_read_byte(string) != 0x00)
     abc:	fc 01       	movw	r30, r24
     abe:	84 91       	lpm	r24, Z+
     ac0:	88 23       	and	r24, r24
     ac2:	61 f0       	breq	.+24     	; 0xadc <rprintf_rom+0x26>
  {
    rputchar(pgm_read_byte(string));    
     ac4:	fe 01       	movw	r30, r28
     ac6:	84 91       	lpm	r24, Z+
     ac8:	e0 91 b8 01 	lds	r30, 0x01B8
     acc:	f0 91 b9 01 	lds	r31, 0x01B9
     ad0:	09 95       	icall
    string++;
     ad2:	21 96       	adiw	r28, 0x01	; 1
//**************************************************
// void rprintf_rom(const u08 *string)
//**************************************************
void rprintf_rom(const u08 *string)
{
  while(pgm_read_byte(string) != 0x00)
     ad4:	fe 01       	movw	r30, r28
     ad6:	84 91       	lpm	r24, Z+
     ad8:	88 23       	and	r24, r24
     ada:	a1 f7       	brne	.-24     	; 0xac4 <rprintf_rom+0xe>
  {
    rputchar(pgm_read_byte(string));    
    string++;
  }  
}
     adc:	df 91       	pop	r29
     ade:	cf 91       	pop	r28
     ae0:	08 95       	ret

00000ae2 <rprintfu04>:
// void rprintfu04(unsigned char data)
// prints an unsigned 4-bit number in hex (1 digit)
//**************************************************
void rprintfu04(unsigned char data)
{
	rputchar(pgm_read_byte( HexChars+(data&0x0f) ));
     ae2:	e8 2f       	mov	r30, r24
     ae4:	f0 e0       	ldi	r31, 0x00	; 0
     ae6:	ef 70       	andi	r30, 0x0F	; 15
     ae8:	f0 70       	andi	r31, 0x00	; 0
     aea:	ec 5c       	subi	r30, 0xCC	; 204
     aec:	ff 4f       	sbci	r31, 0xFF	; 255
     aee:	e4 91       	lpm	r30, Z+
     af0:	20 91 b8 01 	lds	r18, 0x01B8
     af4:	30 91 b9 01 	lds	r19, 0x01B9
     af8:	8e 2f       	mov	r24, r30
     afa:	f9 01       	movw	r30, r18
     afc:	09 95       	icall
}
     afe:	08 95       	ret

00000b00 <rprintfChar>:

void rprintfChar(unsigned char data)
{
	rputchar(data);
     b00:	e0 91 b8 01 	lds	r30, 0x01B8
     b04:	f0 91 b9 01 	lds	r31, 0x01B9
     b08:	09 95       	icall
}
     b0a:	08 95       	ret

00000b0c <rprintfu08>:
//**************************************************
// void rprintfu08(u08 data)
// prints an unsigned 8-bit number in hex (2 digits)
//**************************************************
void rprintfu08(u08 data)
{
     b0c:	1f 93       	push	r17
     b0e:	18 2f       	mov	r17, r24
	// print 8-bit hex value
	rprintfu04(data>>4);
     b10:	82 95       	swap	r24
     b12:	8f 70       	andi	r24, 0x0F	; 15
     b14:	e6 df       	rcall	.-52     	; 0xae2 <rprintfu04>
	rprintfu04(data);
     b16:	81 2f       	mov	r24, r17
     b18:	e4 df       	rcall	.-56     	; 0xae2 <rprintfu04>
}
     b1a:	1f 91       	pop	r17
     b1c:	08 95       	ret

00000b1e <rprintfu16>:

void rprintfu16(u16 data)
{
     b1e:	1f 93       	push	r17
     b20:	18 2f       	mov	r17, r24
	// print 8-bit hex value
	rprintfu08(data>>8);
     b22:	89 2f       	mov	r24, r25
     b24:	f3 df       	rcall	.-26     	; 0xb0c <rprintfu08>
	rprintfu08(data&0xFF);
     b26:	81 2f       	mov	r24, r17
     b28:	f1 df       	rcall	.-30     	; 0xb0c <rprintfu08>
}
     b2a:	1f 91       	pop	r17
     b2c:	08 95       	ret

00000b2e <rprintf_dec_u16>:

  //****************************************
  // Print decimal value of int
  //****************************************
  void rprintf_dec_u16(u16 uart_data)
  {
     b2e:	ef 92       	push	r14
     b30:	ff 92       	push	r15
     b32:	0f 93       	push	r16
     b34:	1f 93       	push	r17
     b36:	7c 01       	movw	r14, r24
      u16 temp,middle;
      temp = uart_data;
      middle = (temp/1000);                   // first digit of int uart_data
     b38:	68 ee       	ldi	r22, 0xE8	; 232
     b3a:	73 e0       	ldi	r23, 0x03	; 3
     b3c:	e8 d9       	rcall	.-3120   	; 0xffffff0e <__eeprom_end+0xff7eff0e>
     b3e:	8b 01       	movw	r16, r22
      if(middle == 0)
     b40:	61 15       	cp	r22, r1
     b42:	71 05       	cpc	r23, r1
     b44:	09 f4       	brne	.+2      	; 0xb48 <rprintf_dec_u16+0x1a>
     b46:	53 c0       	rjmp	.+166    	; 0xbee <rprintf_dec_u16+0xc0>
        rputchar(' ');
      else      
        rputchar(middle + 0x30);
     b48:	e0 91 b8 01 	lds	r30, 0x01B8
     b4c:	f0 91 b9 01 	lds	r31, 0x01B9
     b50:	86 2f       	mov	r24, r22
     b52:	80 5d       	subi	r24, 0xD0	; 208
     b54:	09 95       	icall
      temp = (temp-(middle*1000));
     b56:	88 ee       	ldi	r24, 0xE8	; 232
     b58:	93 e0       	ldi	r25, 0x03	; 3
     b5a:	9c 01       	movw	r18, r24
     b5c:	02 9f       	mul	r16, r18
     b5e:	c0 01       	movw	r24, r0
     b60:	03 9f       	mul	r16, r19
     b62:	90 0d       	add	r25, r0
     b64:	12 9f       	mul	r17, r18
     b66:	90 0d       	add	r25, r0
     b68:	11 24       	eor	r1, r1
     b6a:	e8 1a       	sub	r14, r24
     b6c:	f9 0a       	sbc	r15, r25
      middle = (temp/100);                    // second digit of int uart_data
     b6e:	c7 01       	movw	r24, r14
     b70:	64 e6       	ldi	r22, 0x64	; 100
     b72:	70 e0       	ldi	r23, 0x00	; 0
     b74:	cc d9       	rcall	.-3176   	; 0xffffff0e <__eeprom_end+0xff7eff0e>
     b76:	8b 01       	movw	r16, r22
      rputchar(middle + 0x30);
     b78:	e0 91 b8 01 	lds	r30, 0x01B8
     b7c:	f0 91 b9 01 	lds	r31, 0x01B9
     b80:	86 2f       	mov	r24, r22
     b82:	80 5d       	subi	r24, 0xD0	; 208
     b84:	09 95       	icall
      temp = (temp-(middle*100));
     b86:	84 e6       	ldi	r24, 0x64	; 100
     b88:	90 e0       	ldi	r25, 0x00	; 0
     b8a:	9c 01       	movw	r18, r24
     b8c:	02 9f       	mul	r16, r18
     b8e:	c0 01       	movw	r24, r0
     b90:	03 9f       	mul	r16, r19
     b92:	90 0d       	add	r25, r0
     b94:	12 9f       	mul	r17, r18
     b96:	90 0d       	add	r25, r0
     b98:	11 24       	eor	r1, r1
     b9a:	e8 1a       	sub	r14, r24
     b9c:	f9 0a       	sbc	r15, r25
      middle = (temp/10);                     // third digit of int uart_data
     b9e:	c7 01       	movw	r24, r14
     ba0:	6a e0       	ldi	r22, 0x0A	; 10
     ba2:	70 e0       	ldi	r23, 0x00	; 0
     ba4:	b4 d9       	rcall	.-3224   	; 0xffffff0e <__eeprom_end+0xff7eff0e>
     ba6:	16 2f       	mov	r17, r22
     ba8:	07 2f       	mov	r16, r23
      rputchar(middle + 0x30);
     baa:	e0 91 b8 01 	lds	r30, 0x01B8
     bae:	f0 91 b9 01 	lds	r31, 0x01B9
     bb2:	86 2f       	mov	r24, r22
     bb4:	80 5d       	subi	r24, 0xD0	; 208
     bb6:	09 95       	icall
      temp = (temp-(middle*10));
      middle = temp;                          
      rputchar(middle + 0x30);                    // fourth digit of int uart_data
     bb8:	81 2f       	mov	r24, r17
     bba:	90 2f       	mov	r25, r16
     bbc:	9c 01       	movw	r18, r24
     bbe:	22 0f       	add	r18, r18
     bc0:	33 1f       	adc	r19, r19
     bc2:	22 0f       	add	r18, r18
     bc4:	33 1f       	adc	r19, r19
     bc6:	22 0f       	add	r18, r18
     bc8:	33 1f       	adc	r19, r19
     bca:	88 0f       	add	r24, r24
     bcc:	99 1f       	adc	r25, r25
     bce:	28 0f       	add	r18, r24
     bd0:	39 1f       	adc	r19, r25
     bd2:	e2 1a       	sub	r14, r18
     bd4:	f3 0a       	sbc	r15, r19
     bd6:	e0 91 b8 01 	lds	r30, 0x01B8
     bda:	f0 91 b9 01 	lds	r31, 0x01B9
     bde:	8e 2d       	mov	r24, r14
     be0:	80 5d       	subi	r24, 0xD0	; 208
     be2:	09 95       	icall
  }
     be4:	1f 91       	pop	r17
     be6:	0f 91       	pop	r16
     be8:	ff 90       	pop	r15
     bea:	ef 90       	pop	r14
     bec:	08 95       	ret
  {
      u16 temp,middle;
      temp = uart_data;
      middle = (temp/1000);                   // first digit of int uart_data
      if(middle == 0)
        rputchar(' ');
     bee:	e0 91 b8 01 	lds	r30, 0x01B8
     bf2:	f0 91 b9 01 	lds	r31, 0x01B9
     bf6:	80 e2       	ldi	r24, 0x20	; 32
     bf8:	09 95       	icall
     bfa:	ad cf       	rjmp	.-166    	; 0xb56 <rprintf_dec_u16+0x28>

00000bfc <rprintf_dec_u08>:

  //****************************************
  // print_char() prints the decimal value of 
  //****************************************
  void rprintf_dec_u08(u08 uart_data,u08 leading_zero_suppression)
  {
     bfc:	ff 92       	push	r15
     bfe:	0f 93       	push	r16
     c00:	1f 93       	push	r17
     c02:	df 93       	push	r29
     c04:	cf 93       	push	r28
     c06:	0f 92       	push	r0
     c08:	cd b7       	in	r28, 0x3d	; 61
     c0a:	de b7       	in	r29, 0x3e	; 62
     c0c:	f8 2e       	mov	r15, r24
     c0e:	26 2f       	mov	r18, r22
      u08 temp,middle;
      temp = uart_data;
      middle = (temp/100);                    // second digit of int uart_data
     c10:	64 e6       	ldi	r22, 0x64	; 100
     c12:	71 d9       	rcall	.-3358   	; 0xfffffef6 <__eeprom_end+0xff7efef6>
     c14:	98 2f       	mov	r25, r24
      if(middle == 0)
     c16:	88 23       	and	r24, r24
     c18:	b9 f5       	brne	.+110    	; 0xc88 <rprintf_dec_u08+0x8c>
      {
        if(!leading_zero_suppression)
     c1a:	22 23       	and	r18, r18
     c1c:	61 f1       	breq	.+88     	; 0xc76 <rprintf_dec_u08+0x7a>
          rputchar(' ');
      }
      else
        rputchar(middle + 0x30);    
      temp = (temp-(middle*100));
     c1e:	0c e9       	ldi	r16, 0x9C	; 156
     c20:	1f ef       	ldi	r17, 0xFF	; 255
     c22:	90 9f       	mul	r25, r16
     c24:	00 2d       	mov	r16, r0
     c26:	11 24       	eor	r1, r1
     c28:	0f 0d       	add	r16, r15
      middle = (temp/10);                     // first digit of char uart_data
     c2a:	80 2f       	mov	r24, r16
     c2c:	6a e0       	ldi	r22, 0x0A	; 10
     c2e:	63 d9       	rcall	.-3386   	; 0xfffffef6 <__eeprom_end+0xff7efef6>
     c30:	f8 2e       	mov	r15, r24
      rputchar(middle + 0x30);
     c32:	e0 91 b8 01 	lds	r30, 0x01B8
     c36:	f0 91 b9 01 	lds	r31, 0x01B9
     c3a:	80 5d       	subi	r24, 0xD0	; 208
     c3c:	09 95       	icall
      temp = (temp-(middle*10));
      middle = temp;                          // second digit of char uart_data
      rputchar(middle + 0x30);
     c3e:	00 5d       	subi	r16, 0xD0	; 208
     c40:	8f 2d       	mov	r24, r15
     c42:	90 e0       	ldi	r25, 0x00	; 0
     c44:	9c 01       	movw	r18, r24
     c46:	22 0f       	add	r18, r18
     c48:	33 1f       	adc	r19, r19
     c4a:	22 0f       	add	r18, r18
     c4c:	33 1f       	adc	r19, r19
     c4e:	22 0f       	add	r18, r18
     c50:	33 1f       	adc	r19, r19
     c52:	88 0f       	add	r24, r24
     c54:	99 1f       	adc	r25, r25
     c56:	28 0f       	add	r18, r24
     c58:	39 1f       	adc	r19, r25
     c5a:	e0 91 b8 01 	lds	r30, 0x01B8
     c5e:	f0 91 b9 01 	lds	r31, 0x01B9
     c62:	80 2f       	mov	r24, r16
     c64:	82 1b       	sub	r24, r18
     c66:	09 95       	icall
  }
     c68:	0f 90       	pop	r0
     c6a:	cf 91       	pop	r28
     c6c:	df 91       	pop	r29
     c6e:	1f 91       	pop	r17
     c70:	0f 91       	pop	r16
     c72:	ff 90       	pop	r15
     c74:	08 95       	ret
      temp = uart_data;
      middle = (temp/100);                    // second digit of int uart_data
      if(middle == 0)
      {
        if(!leading_zero_suppression)
          rputchar(' ');
     c76:	e0 91 b8 01 	lds	r30, 0x01B8
     c7a:	f0 91 b9 01 	lds	r31, 0x01B9
     c7e:	80 e2       	ldi	r24, 0x20	; 32
     c80:	99 83       	std	Y+1, r25	; 0x01
     c82:	09 95       	icall
     c84:	99 81       	ldd	r25, Y+1	; 0x01
     c86:	cb cf       	rjmp	.-106    	; 0xc1e <rprintf_dec_u08+0x22>
      }
      else
        rputchar(middle + 0x30);    
     c88:	e0 91 b8 01 	lds	r30, 0x01B8
     c8c:	f0 91 b9 01 	lds	r31, 0x01B9
     c90:	80 5d       	subi	r24, 0xD0	; 208
     c92:	99 83       	std	Y+1, r25	; 0x01
     c94:	09 95       	icall
     c96:	99 81       	ldd	r25, Y+1	; 0x01
     c98:	c2 cf       	rjmp	.-124    	; 0xc1e <rprintf_dec_u08+0x22>

00000c9a <__vector_18>:
// A problem is that the message cannot be longer than 
// RX_SERIAL_BUFFER_SIZE coz that will result in 
// unpredicatble behaviour
//*************************************************
SIGNAL(SIG_USART_RECV)
{
     c9a:	1f 92       	push	r1
     c9c:	0f 92       	push	r0
     c9e:	0f b6       	in	r0, 0x3f	; 63
     ca0:	0f 92       	push	r0
     ca2:	11 24       	eor	r1, r1
     ca4:	8f 93       	push	r24
     ca6:	9f 93       	push	r25
     ca8:	ef 93       	push	r30
     caa:	ff 93       	push	r31
cli();
     cac:	f8 94       	cli
	
  //UDR0 = '*';
	RxSerial.charbuffer[RxSerial.wr_index] = UDR0;  // Get_char();
     cae:	e0 91 d5 01 	lds	r30, 0x01D5
     cb2:	f0 e0       	ldi	r31, 0x00	; 0
     cb4:	80 91 c6 00 	lds	r24, 0x00C6
     cb8:	ec 52       	subi	r30, 0x2C	; 44
     cba:	fe 4f       	sbci	r31, 0xFE	; 254
     cbc:	87 a3       	std	Z+39, r24	; 0x27
  RxSerial.LastRxSerial_cnt = 0;  // reset the counter that checks how long ago the last message was sent
     cbe:	10 92 da 01 	sts	0x01DA, r1
  
	if(RxSerial.charbuffer[RxSerial.wr_index] == 100)
     cc2:	e0 91 d5 01 	lds	r30, 0x01D5
     cc6:	f0 e0       	ldi	r31, 0x00	; 0
     cc8:	ec 52       	subi	r30, 0x2C	; 44
     cca:	fe 4f       	sbci	r31, 0xFE	; 254
     ccc:	87 a1       	ldd	r24, Z+39	; 0x27
     cce:	84 36       	cpi	r24, 0x64	; 100
     cd0:	b9 f0       	breq	.+46     	; 0xd00 <__vector_18+0x66>
			RxSerial.Message[i] = RxSerial.charbuffer[i];
		RxSerial.MessageReady_flag = 1;
		RxSerial.MessageSize= RxSerial.wr_index;			
		RxSerial.wr_index = 0;
	}
	else if(++RxSerial.wr_index >= RX_SERIAL_BUFFER_SIZE)
     cd2:	80 91 d5 01 	lds	r24, 0x01D5
     cd6:	8f 5f       	subi	r24, 0xFF	; 255
     cd8:	80 93 d5 01 	sts	0x01D5, r24
     cdc:	80 91 d5 01 	lds	r24, 0x01D5
     ce0:	8e 31       	cpi	r24, 0x1E	; 30
     ce2:	20 f0       	brcs	.+8      	; 0xcec <__vector_18+0x52>
  {
    RxSerial.wr_index = 0;  
     ce4:	10 92 d5 01 	sts	0x01D5, r1
	RxSerial.CarriageReturn_flag = 0;		
     ce8:	10 92 d6 01 	sts	0x01D6, r1
  }
	
sei();
     cec:	78 94       	sei
}
     cee:	ff 91       	pop	r31
     cf0:	ef 91       	pop	r30
     cf2:	9f 91       	pop	r25
     cf4:	8f 91       	pop	r24
     cf6:	0f 90       	pop	r0
     cf8:	0f be       	out	0x3f, r0	; 63
     cfa:	0f 90       	pop	r0
     cfc:	1f 90       	pop	r1
     cfe:	18 95       	reti
	RxSerial.charbuffer[RxSerial.wr_index] = UDR0;  // Get_char();
  RxSerial.LastRxSerial_cnt = 0;  // reset the counter that checks how long ago the last message was sent
  
	if(RxSerial.charbuffer[RxSerial.wr_index] == 100)
	{
		RxSerial.CarriageReturn_flag = 1;		
     d00:	81 e0       	ldi	r24, 0x01	; 1
     d02:	80 93 d6 01 	sts	0x01D6, r24
		// Copy the message out
		u08 i;
		for(i= 0; i<RxSerial.wr_index; i++)
     d06:	80 91 d5 01 	lds	r24, 0x01D5
     d0a:	88 23       	and	r24, r24
     d0c:	61 f0       	breq	.+24     	; 0xd26 <__vector_18+0x8c>
     d0e:	90 e0       	ldi	r25, 0x00	; 0
			RxSerial.Message[i] = RxSerial.charbuffer[i];
     d10:	e9 2f       	mov	r30, r25
     d12:	f0 e0       	ldi	r31, 0x00	; 0
     d14:	ec 52       	subi	r30, 0x2C	; 44
     d16:	fe 4f       	sbci	r31, 0xFE	; 254
     d18:	87 a1       	ldd	r24, Z+39	; 0x27
     d1a:	81 87       	std	Z+9, r24	; 0x09
	if(RxSerial.charbuffer[RxSerial.wr_index] == 100)
	{
		RxSerial.CarriageReturn_flag = 1;		
		// Copy the message out
		u08 i;
		for(i= 0; i<RxSerial.wr_index; i++)
     d1c:	9f 5f       	subi	r25, 0xFF	; 255
     d1e:	80 91 d5 01 	lds	r24, 0x01D5
     d22:	98 17       	cp	r25, r24
     d24:	a8 f3       	brcs	.-22     	; 0xd10 <__vector_18+0x76>
			RxSerial.Message[i] = RxSerial.charbuffer[i];
		RxSerial.MessageReady_flag = 1;
     d26:	81 e0       	ldi	r24, 0x01	; 1
     d28:	80 93 db 01 	sts	0x01DB, r24
		RxSerial.MessageSize= RxSerial.wr_index;			
     d2c:	80 91 d5 01 	lds	r24, 0x01D5
     d30:	80 93 dc 01 	sts	0x01DC, r24
		RxSerial.wr_index = 0;
     d34:	10 92 d5 01 	sts	0x01D5, r1
     d38:	d9 cf       	rjmp	.-78     	; 0xcec <__vector_18+0x52>

00000d3a <__vector_20>:

//*************************************************
// Serial UART Transmit interrupt
//*************************************************
SIGNAL(SIG_USART_TRANS)
{
     d3a:	1f 92       	push	r1
     d3c:	0f 92       	push	r0
     d3e:	0f b6       	in	r0, 0x3f	; 63
     d40:	0f 92       	push	r0
     d42:	11 24       	eor	r1, r1
     d44:	8f 93       	push	r24
     d46:	9f 93       	push	r25
     d48:	ef 93       	push	r30
     d4a:	ff 93       	push	r31
cli();
     d4c:	f8 94       	cli
	if(!(UCSR0A & (1<<UDRE0)))
     d4e:	80 91 c0 00 	lds	r24, 0x00C0
     d52:	85 ff       	sbrs	r24, 5
     d54:	1a c0       	rjmp	.+52     	; 0xd8a <__vector_20+0x50>
		return; // wait for empty transmit buffer
 
	// Check if all the bytes have been read out 
	if(TxSerial.rd_index  != TxSerial.wr_index)
     d56:	90 91 19 02 	lds	r25, 0x0219
     d5a:	80 91 1a 02 	lds	r24, 0x021A
     d5e:	98 17       	cp	r25, r24
     d60:	e9 f0       	breq	.+58     	; 0xd9c <__vector_20+0x62>
	{
		// Send the next byte to the UART register
		UDR0 = TxSerial.charbuffer[TxSerial.rd_index];
     d62:	e0 91 19 02 	lds	r30, 0x0219
     d66:	f0 e0       	ldi	r31, 0x00	; 0
     d68:	e7 5e       	subi	r30, 0xE7	; 231
     d6a:	fd 4f       	sbci	r31, 0xFD	; 253
     d6c:	83 81       	ldd	r24, Z+3	; 0x03
     d6e:	80 93 c6 00 	sts	0x00C6, r24
	
		if(++TxSerial.rd_index >= TX_SERIAL_BUFFER_SIZE){
     d72:	80 91 19 02 	lds	r24, 0x0219
     d76:	8f 5f       	subi	r24, 0xFF	; 255
     d78:	80 93 19 02 	sts	0x0219, r24
     d7c:	80 91 19 02 	lds	r24, 0x0219
     d80:	8e 31       	cpi	r24, 0x1E	; 30
     d82:	10 f0       	brcs	.+4      	; 0xd88 <__vector_20+0x4e>
			TxSerial.rd_index = 0;
     d84:	10 92 19 02 	sts	0x0219, r1
	else	
	{	
		TxSerial.transmitting = 0;
		// Finished sending all the bytes	
	}	
sei();  
     d88:	78 94       	sei
}
     d8a:	ff 91       	pop	r31
     d8c:	ef 91       	pop	r30
     d8e:	9f 91       	pop	r25
     d90:	8f 91       	pop	r24
     d92:	0f 90       	pop	r0
     d94:	0f be       	out	0x3f, r0	; 63
     d96:	0f 90       	pop	r0
     d98:	1f 90       	pop	r1
     d9a:	18 95       	reti
			TxSerial.rd_index = 0;
		}
	}
	else	
	{	
		TxSerial.transmitting = 0;
     d9c:	10 92 1b 02 	sts	0x021B, r1
		// Finished sending all the bytes	
	}	
sei();  
     da0:	78 94       	sei
     da2:	f3 cf       	rjmp	.-26     	; 0xd8a <__vector_20+0x50>

00000da4 <uart_ClearRXbuffers>:

void uart_ClearRXbuffers(void)
{
	u08 i;
// Clear the circular buffers
	RxSerial.rd_index = 0;
     da4:	10 92 d4 01 	sts	0x01D4, r1
	RxSerial.wr_index = 0;
     da8:	10 92 d5 01 	sts	0x01D5, r1
	RxSerial.CarriageReturn_flag = 0;
     dac:	10 92 d6 01 	sts	0x01D6, r1
  RxSerial.StartDelim_flag = 0;  
     db0:	10 92 d7 01 	sts	0x01D7, r1
  RxSerial.EndDelim_flag = 0;    
     db4:	10 92 d8 01 	sts	0x01D8, r1
	RxSerial.Wakeup_flag = 0;
     db8:	10 92 d9 01 	sts	0x01D9, r1
     dbc:	80 e0       	ldi	r24, 0x00	; 0
     dbe:	90 e0       	ldi	r25, 0x00	; 0
	
	// fill the array with nulls
	for(i=0;i<RX_SERIAL_BUFFER_SIZE;i++)
	{
		RxSerial.charbuffer[i] = 0x00;
     dc0:	fc 01       	movw	r30, r24
     dc2:	ec 52       	subi	r30, 0x2C	; 44
     dc4:	fe 4f       	sbci	r31, 0xFE	; 254
     dc6:	17 a2       	std	Z+39, r1	; 0x27
     dc8:	01 96       	adiw	r24, 0x01	; 1
  RxSerial.StartDelim_flag = 0;  
  RxSerial.EndDelim_flag = 0;    
	RxSerial.Wakeup_flag = 0;
	
	// fill the array with nulls
	for(i=0;i<RX_SERIAL_BUFFER_SIZE;i++)
     dca:	8e 31       	cpi	r24, 0x1E	; 30
     dcc:	91 05       	cpc	r25, r1
     dce:	c1 f7       	brne	.-16     	; 0xdc0 <uart_ClearRXbuffers+0x1c>
	{
		RxSerial.charbuffer[i] = 0x00;
	}
}
     dd0:	08 95       	ret

00000dd2 <uartInit>:
kkl
  UCSRB = (1<<RXEN)|(1<<TXEN);                        // enable UART transmitter
	UCSRC = (1<<URSEL)|(3<<UCSZ0);	
#endif  
#ifdef ATMEGA88
	  UCSR0B = (1<<RXEN0)|(1<<TXEN0);                        // enable UART transmitter
     dd2:	e1 ec       	ldi	r30, 0xC1	; 193
     dd4:	f0 e0       	ldi	r31, 0x00	; 0
     dd6:	88 e1       	ldi	r24, 0x18	; 24
     dd8:	80 83       	st	Z, r24
	//	UCSR0C = (1<<URSEL)|(3<<UCSZ0);	
	// enable the Uart receive interrupt
	UCSR0B |= (1<<RXCIE0);                       // Enable Rx complete interrupt
     dda:	80 81       	ld	r24, Z
     ddc:	80 68       	ori	r24, 0x80	; 128
     dde:	80 83       	st	Z, r24
	  UCSR0B |= (1<<TXCIE0);
	#endif  
#endif  

// Clear the circular buffers
	TxSerial.rd_index = 0;
     de0:	10 92 19 02 	sts	0x0219, r1
	TxSerial.wr_index = 0;
     de4:	10 92 1a 02 	sts	0x021A, r1
	TxSerial.transmitting = 0;
     de8:	10 92 1b 02 	sts	0x021B, r1
  uart_ClearRXbuffers();
     dec:	db df       	rcall	.-74     	; 0xda4 <uart_ClearRXbuffers>
}
     dee:	08 95       	ret

00000df0 <uartSetBaudRate>:
}
//****************************************
// Set the uart baud rate
//****************************************
void uartSetBaudRate(u32 baudrate)
{
     df0:	9b 01       	movw	r18, r22
     df2:	ac 01       	movw	r20, r24
	// calculate division factor for requested baud rate, and set it
	u16 bauddiv = ((F_CPU+(baudrate*8L))/(baudrate*16L)-1);
     df4:	60 5c       	subi	r22, 0xC0	; 192
     df6:	7d 4b       	sbci	r23, 0xBD	; 189
     df8:	80 4f       	sbci	r24, 0xF0	; 240
     dfa:	9f 4f       	sbci	r25, 0xFF	; 255
     dfc:	66 0f       	add	r22, r22
     dfe:	77 1f       	adc	r23, r23
     e00:	88 1f       	adc	r24, r24
     e02:	99 1f       	adc	r25, r25
     e04:	66 0f       	add	r22, r22
     e06:	77 1f       	adc	r23, r23
     e08:	88 1f       	adc	r24, r24
     e0a:	99 1f       	adc	r25, r25
     e0c:	66 0f       	add	r22, r22
     e0e:	77 1f       	adc	r23, r23
     e10:	88 1f       	adc	r24, r24
     e12:	99 1f       	adc	r25, r25
     e14:	22 0f       	add	r18, r18
     e16:	33 1f       	adc	r19, r19
     e18:	44 1f       	adc	r20, r20
     e1a:	55 1f       	adc	r21, r21
     e1c:	22 0f       	add	r18, r18
     e1e:	33 1f       	adc	r19, r19
     e20:	44 1f       	adc	r20, r20
     e22:	55 1f       	adc	r21, r21
     e24:	22 0f       	add	r18, r18
     e26:	33 1f       	adc	r19, r19
     e28:	44 1f       	adc	r20, r20
     e2a:	55 1f       	adc	r21, r21
     e2c:	22 0f       	add	r18, r18
     e2e:	33 1f       	adc	r19, r19
     e30:	44 1f       	adc	r20, r20
     e32:	55 1f       	adc	r21, r21
     e34:	80 d8       	rcall	.-3840   	; 0xffffff36 <__eeprom_end+0xff7eff36>
     e36:	21 50       	subi	r18, 0x01	; 1
     e38:	30 40       	sbci	r19, 0x00	; 0
  #ifdef ATMEGA8
    outb(UBRRL, bauddiv);
    outb(UBRRH, bauddiv>>8);    
  #endif
  #ifdef ATMEGA88
    UBRR0L =  bauddiv;
     e3a:	20 93 c4 00 	sts	0x00C4, r18
    UBRR0H =  bauddiv>>8;        
     e3e:	30 93 c5 00 	sts	0x00C5, r19
  #endif
}
     e42:	08 95       	ret

00000e44 <uartSendChar>:
//****************************************
// Send the byte to the Uart, or write to 
// the circular transmit buffer.
//***************************************
void uartSendChar(u08 data)
{
     e44:	98 2f       	mov	r25, r24
#ifdef UART_STRAIGHT_TX
    #ifdef ATMEGA8
    while (!(UCSRA & (1<<UDRE)));              // wait for empty transmit buffer
    #endif
    #ifdef ATMEGA88
    while (!(UCSR0A & (1<<UDRE0)));              // wait for empty transmit buffer
     e46:	80 91 c0 00 	lds	r24, 0x00C0
     e4a:	85 ff       	sbrs	r24, 5
     e4c:	fc cf       	rjmp	.-8      	; 0xe46 <uartSendChar+0x2>
    #endif
    #ifdef ATMEGA8
      UDR = data;                            
    #endif
    #ifdef ATMEGA88
      UDR0 = data;                            
     e4e:	90 93 c6 00 	sts	0x00C6, r25
    #endif    
    #ifdef ATMEGA8
    while (!(UCSRA & (1<<UDRE)));              // wait for empty transmit buffer
    #endif
    #ifdef ATMEGA88
    while (!(UCSR0A & (1<<UDRE0)));              // wait for empty transmit buffer
     e52:	80 91 c0 00 	lds	r24, 0x00C0
     e56:	85 ff       	sbrs	r24, 5
     e58:	fc cf       	rjmp	.-8      	; 0xe52 <uartSendChar+0xe>
		
	}

	
#endif	
}
     e5a:	08 95       	ret

00000e5c <uartGetChar>:
  #ifdef ATMEGA8
    while ( !(UCSRA & (1<<RXC)) );
    return UDR;    
  #endif
  #ifdef ATMEGA88
    while ( !(UCSR0A & (1<<RXC0)) );
     e5c:	80 91 c0 00 	lds	r24, 0x00C0
     e60:	87 ff       	sbrs	r24, 7
     e62:	fc cf       	rjmp	.-8      	; 0xe5c <uartGetChar>
    return UDR0;        
     e64:	80 91 c6 00 	lds	r24, 0x00C6
  #endif
  
#else
#endif
}
     e68:	08 95       	ret

00000e6a <Time_InitRTC>:



void Time_InitRTC(u08 type)
{
  i2c_buf[0]=0x0E;
     e6a:	9e e0       	ldi	r25, 0x0E	; 14
     e6c:	90 93 ba 01 	sts	0x01BA, r25
//  i2c_buf[1]=((type&0x03) <<3)  | 0x01; // osc on INTCN ALARM1 on INTA# A1IE enable
  i2c_buf[1]=((type&0x03) <<3); // osc on INTCN ALARM1 on INTA# A1IE enable
     e70:	83 70       	andi	r24, 0x03	; 3
     e72:	88 0f       	add	r24, r24
     e74:	88 0f       	add	r24, r24
     e76:	88 0f       	add	r24, r24
     e78:	80 93 bb 01 	sts	0x01BB, r24

  i2cMasterSendNI(0x68,2,(u08*)&i2c_buf[0]);
     e7c:	88 e6       	ldi	r24, 0x68	; 104
     e7e:	62 e0       	ldi	r22, 0x02	; 2
     e80:	4a eb       	ldi	r20, 0xBA	; 186
     e82:	51 e0       	ldi	r21, 0x01	; 1
     e84:	38 dd       	rcall	.-1424   	; 0x8f6 <i2cMasterSendNI>
}
     e86:	08 95       	ret

00000e88 <Time_settime>:
#include "time.h"



void Time_settime(u08 hours,u08 minutes, u08 seconds)
{  
     e88:	f8 2f       	mov	r31, r24
     e8a:	e6 2f       	mov	r30, r22
  u08 tens, units;
  
  i2c_buf[0]=0x00;
     e8c:	10 92 ba 01 	sts	0x01BA, r1
  
  // Convert decimal to BCD Hex
  tens = (seconds/10);
     e90:	84 2f       	mov	r24, r20
     e92:	6a e0       	ldi	r22, 0x0A	; 10
     e94:	30 d8       	rcall	.-4000   	; 0xfffffef6 <__eeprom_end+0xff7efef6>
  units = seconds - (tens*10);
  i2c_buf[1]=(tens<<4) + units;    
     e96:	58 2f       	mov	r21, r24
     e98:	52 95       	swap	r21
     e9a:	50 7f       	andi	r21, 0xF0	; 240
     e9c:	54 0f       	add	r21, r20
     e9e:	28 2f       	mov	r18, r24
     ea0:	30 e0       	ldi	r19, 0x00	; 0
     ea2:	c9 01       	movw	r24, r18
     ea4:	88 0f       	add	r24, r24
     ea6:	99 1f       	adc	r25, r25
     ea8:	88 0f       	add	r24, r24
     eaa:	99 1f       	adc	r25, r25
     eac:	88 0f       	add	r24, r24
     eae:	99 1f       	adc	r25, r25
     eb0:	22 0f       	add	r18, r18
     eb2:	33 1f       	adc	r19, r19
     eb4:	82 0f       	add	r24, r18
     eb6:	93 1f       	adc	r25, r19
     eb8:	58 1b       	sub	r21, r24
     eba:	50 93 bb 01 	sts	0x01BB, r21
  
  tens = (minutes/10);
     ebe:	8e 2f       	mov	r24, r30
     ec0:	1a d8       	rcall	.-4044   	; 0xfffffef6 <__eeprom_end+0xff7efef6>
  units = minutes - (tens*10);    
  i2c_buf[2]=(tens<<4) + units;
     ec2:	48 2f       	mov	r20, r24
     ec4:	42 95       	swap	r20
     ec6:	40 7f       	andi	r20, 0xF0	; 240
     ec8:	4e 0f       	add	r20, r30
     eca:	28 2f       	mov	r18, r24
     ecc:	30 e0       	ldi	r19, 0x00	; 0
     ece:	c9 01       	movw	r24, r18
     ed0:	88 0f       	add	r24, r24
     ed2:	99 1f       	adc	r25, r25
     ed4:	88 0f       	add	r24, r24
     ed6:	99 1f       	adc	r25, r25
     ed8:	88 0f       	add	r24, r24
     eda:	99 1f       	adc	r25, r25
     edc:	22 0f       	add	r18, r18
     ede:	33 1f       	adc	r19, r19
     ee0:	82 0f       	add	r24, r18
     ee2:	93 1f       	adc	r25, r19
     ee4:	48 1b       	sub	r20, r24
     ee6:	40 93 bc 01 	sts	0x01BC, r20
  
  tens = (hours/10);
     eea:	8f 2f       	mov	r24, r31
     eec:	04 d8       	rcall	.-4088   	; 0xfffffef6 <__eeprom_end+0xff7efef6>
  units = hours - (tens*10);  
  i2c_buf[3]=(tens<<4) + units;  
     eee:	48 2f       	mov	r20, r24
     ef0:	42 95       	swap	r20
     ef2:	40 7f       	andi	r20, 0xF0	; 240
     ef4:	4f 0f       	add	r20, r31
     ef6:	28 2f       	mov	r18, r24
     ef8:	30 e0       	ldi	r19, 0x00	; 0
     efa:	c9 01       	movw	r24, r18
     efc:	88 0f       	add	r24, r24
     efe:	99 1f       	adc	r25, r25
     f00:	88 0f       	add	r24, r24
     f02:	99 1f       	adc	r25, r25
     f04:	88 0f       	add	r24, r24
     f06:	99 1f       	adc	r25, r25
     f08:	22 0f       	add	r18, r18
     f0a:	33 1f       	adc	r19, r19
     f0c:	82 0f       	add	r24, r18
     f0e:	93 1f       	adc	r25, r19
     f10:	48 1b       	sub	r20, r24
     f12:	40 93 bd 01 	sts	0x01BD, r20

  i2cMasterSendNI(RTC_I2C_ADDR,4,(u08*)&i2c_buf[0]);
     f16:	88 e6       	ldi	r24, 0x68	; 104
     f18:	64 e0       	ldi	r22, 0x04	; 4
     f1a:	4a eb       	ldi	r20, 0xBA	; 186
     f1c:	51 e0       	ldi	r21, 0x01	; 1
     f1e:	eb dc       	rcall	.-1578   	; 0x8f6 <i2cMasterSendNI>
}
     f20:	08 95       	ret

00000f22 <Time_readtime>:

void Time_readtime(u08 *hours,u08 *minutes, u08 *seconds)
{
     f22:	af 92       	push	r10
     f24:	bf 92       	push	r11
     f26:	cf 92       	push	r12
     f28:	df 92       	push	r13
     f2a:	ef 92       	push	r14
     f2c:	ff 92       	push	r15
     f2e:	0f 93       	push	r16
     f30:	1f 93       	push	r17
     f32:	5c 01       	movw	r10, r24
     f34:	6b 01       	movw	r12, r22
     f36:	7a 01       	movw	r14, r20
  i2c_buf[0]=0x00;
     f38:	0a eb       	ldi	r16, 0xBA	; 186
     f3a:	11 e0       	ldi	r17, 0x01	; 1
     f3c:	10 92 ba 01 	sts	0x01BA, r1
  i2cMasterSendNI(RTC_I2C_ADDR,1,(u08*)&i2c_buf[0]); 
     f40:	88 e6       	ldi	r24, 0x68	; 104
     f42:	61 e0       	ldi	r22, 0x01	; 1
     f44:	a8 01       	movw	r20, r16
     f46:	d7 dc       	rcall	.-1618   	; 0x8f6 <i2cMasterSendNI>
  i2cMasterReceiveNI(RTC_I2C_ADDR, 3, (u08*)&i2c_buf[0]);
     f48:	88 e6       	ldi	r24, 0x68	; 104
     f4a:	63 e0       	ldi	r22, 0x03	; 3
     f4c:	a8 01       	movw	r20, r16
     f4e:	37 dd       	rcall	.-1426   	; 0x9be <i2cMasterReceiveNI>

  *seconds = (i2c_buf[0] >>4)*10 + (i2c_buf[0] &0x0F);
     f50:	80 91 ba 01 	lds	r24, 0x01BA
     f54:	20 91 ba 01 	lds	r18, 0x01BA
     f58:	82 95       	swap	r24
     f5a:	8f 70       	andi	r24, 0x0F	; 15
     f5c:	3a e0       	ldi	r19, 0x0A	; 10
     f5e:	83 9f       	mul	r24, r19
     f60:	c0 01       	movw	r24, r0
     f62:	11 24       	eor	r1, r1
     f64:	2f 70       	andi	r18, 0x0F	; 15
     f66:	28 0f       	add	r18, r24
     f68:	f7 01       	movw	r30, r14
     f6a:	20 83       	st	Z, r18
  *minutes = (i2c_buf[1] >>4)*10 + (i2c_buf[1] &0x0F); 
     f6c:	80 91 bb 01 	lds	r24, 0x01BB
     f70:	20 91 bb 01 	lds	r18, 0x01BB
     f74:	82 95       	swap	r24
     f76:	8f 70       	andi	r24, 0x0F	; 15
     f78:	83 9f       	mul	r24, r19
     f7a:	c0 01       	movw	r24, r0
     f7c:	11 24       	eor	r1, r1
     f7e:	2f 70       	andi	r18, 0x0F	; 15
     f80:	28 0f       	add	r18, r24
     f82:	f6 01       	movw	r30, r12
     f84:	20 83       	st	Z, r18
  *hours = (i2c_buf[2] >>4)*10 + (i2c_buf[2] &0x0F);
     f86:	80 91 bc 01 	lds	r24, 0x01BC
     f8a:	20 91 bc 01 	lds	r18, 0x01BC
     f8e:	82 95       	swap	r24
     f90:	8f 70       	andi	r24, 0x0F	; 15
     f92:	83 9f       	mul	r24, r19
     f94:	c0 01       	movw	r24, r0
     f96:	11 24       	eor	r1, r1
     f98:	2f 70       	andi	r18, 0x0F	; 15
     f9a:	28 0f       	add	r18, r24
     f9c:	f5 01       	movw	r30, r10
     f9e:	20 83       	st	Z, r18
}
     fa0:	1f 91       	pop	r17
     fa2:	0f 91       	pop	r16
     fa4:	ff 90       	pop	r15
     fa6:	ef 90       	pop	r14
     fa8:	df 90       	pop	r13
     faa:	cf 90       	pop	r12
     fac:	bf 90       	pop	r11
     fae:	af 90       	pop	r10
     fb0:	08 95       	ret

00000fb2 <Wind_powerpin>:
// Sets power to the wind sensors
//**************************************************     
void Wind_powerpin(u08 pwr)
{

  DDRC = (DDRC | (1<<PC2)); // Make sure it's an output
     fb2:	3a 9a       	sbi	0x07, 2	; 7

#ifdef TRANSISTOR_BC_807
	if(!pwr)
#else
	if(pwr)  
     fb4:	88 23       	and	r24, r24
     fb6:	11 f4       	brne	.+4      	; 0xfbc <Wind_powerpin+0xa>
	{
		PORTC = (PORTC | 0x04);
	}
	else
	{
		PORTC = PORTC & (~(0x04));
     fb8:	42 98       	cbi	0x08, 2	; 8
     fba:	08 95       	ret
	if(!pwr)
#else
	if(pwr)  
#endif  
	{
		PORTC = (PORTC | 0x04);
     fbc:	42 9a       	sbi	0x08, 2	; 8
     fbe:	08 95       	ret

00000fc0 <IO_Read_SleepJumper>:
//**************************************************
u08 IO_Read_SleepJumper(void)
{  
  // MAke IO2 the ground
  // Make IO1 weak pull up and input
  DEBUG2_SETOUTPUT;
     fc0:	3a 9a       	sbi	0x07, 2	; 7
  DEBUG1_SETINPUT;
     fc2:	39 98       	cbi	0x07, 1	; 7
  
  DEBUG1_1;
     fc4:	41 9a       	sbi	0x08, 1	; 8
  DEBUG2_1;
     fc6:	42 9a       	sbi	0x08, 2	; 8

  if(PINC&(1<<IOPIN_1))
     fc8:	86 b1       	in	r24, 0x06	; 6
     fca:	86 95       	lsr	r24
     fcc:	80 95       	com	r24
  {
    return(0);
  }
  else
    return(1);
}
     fce:	81 70       	andi	r24, 0x01	; 1
     fd0:	08 95       	ret

00000fd2 <Waiter>:
volatile u08 Pwm_flag;
volatile u16 gFAST_CURRENT_MAX;
volatile u16 gFAST_VOLTAGE_TERMINATE;

void Waiter(u16 wt)
{
     fd2:	9c 01       	movw	r18, r24
    SystemTimers.us_tick=0;
     fd4:	10 92 c0 01 	sts	0x01C0, r1
     fd8:	10 92 bf 01 	sts	0x01BF, r1
    while(SystemTimers.us_tick< wt)
     fdc:	80 91 bf 01 	lds	r24, 0x01BF
     fe0:	90 91 c0 01 	lds	r25, 0x01C0
     fe4:	82 17       	cp	r24, r18
     fe6:	93 07       	cpc	r25, r19
     fe8:	48 f4       	brcc	.+18     	; 0xffc <Waiter+0x2a>
    {
      asm volatile("nop\n\t");
     fea:	00 00       	nop
      wdt_reset();
     fec:	a8 95       	wdr
volatile u16 gFAST_VOLTAGE_TERMINATE;

void Waiter(u16 wt)
{
    SystemTimers.us_tick=0;
    while(SystemTimers.us_tick< wt)
     fee:	80 91 bf 01 	lds	r24, 0x01BF
     ff2:	90 91 c0 01 	lds	r25, 0x01C0
     ff6:	82 17       	cp	r24, r18
     ff8:	93 07       	cpc	r25, r19
     ffa:	b8 f3       	brcs	.-18     	; 0xfea <Waiter+0x18>
     ffc:	08 95       	ret

00000ffe <Pwm_off>:
//****************************************
// Pwm_off() 
//****************************************
void Pwm_off(void)                         
{
  TCCR1B = 0x00;
     ffe:	10 92 81 00 	sts	0x0081, r1
}
    1002:	08 95       	ret

00001004 <Pwm_on>:
//****************************************
// Pwm_on() 
//****************************************
void Pwm_on(void)                         
{
  TCCR1B = (1<< CS10);         // 
    1004:	81 e0       	ldi	r24, 0x01	; 1
    1006:	80 93 81 00 	sts	0x0081, r24
}
    100a:	08 95       	ret

0000100c <Set_Pwm>:
//****************************************
// Set_Pwm() 
//****************************************
void Set_Pwm(unsigned int data)                         
{
  OCR1A = data;
    100c:	90 93 89 00 	sts	0x0089, r25
    1010:	80 93 88 00 	sts	0x0088, r24
}
    1014:	08 95       	ret

00001016 <Pwm_inc>:
//****************************************
// Pwm_inc() 
//****************************************
void Pwm_inc(void)                         
{
  OCR1A++;
    1016:	80 91 88 00 	lds	r24, 0x0088
    101a:	90 91 89 00 	lds	r25, 0x0089
    101e:	01 96       	adiw	r24, 0x01	; 1
    1020:	90 93 89 00 	sts	0x0089, r25
    1024:	80 93 88 00 	sts	0x0088, r24
  if(OCR1A == 0)
    1028:	80 91 88 00 	lds	r24, 0x0088
    102c:	90 91 89 00 	lds	r25, 0x0089
    1030:	89 2b       	or	r24, r25
    1032:	31 f4       	brne	.+12     	; 0x1040 <Pwm_inc+0x2a>
  {
    OCR1A = 0xFF; // for 8 Bit
    1034:	8f ef       	ldi	r24, 0xFF	; 255
    1036:	90 e0       	ldi	r25, 0x00	; 0
    1038:	90 93 89 00 	sts	0x0089, r25
    103c:	80 93 88 00 	sts	0x0088, r24
    1040:	08 95       	ret

00001042 <Pwm_dec>:
//****************************************
// Pwm_dec() 
//****************************************
void Pwm_dec(void)                         
{
  if(OCR1A != 0)
    1042:	80 91 88 00 	lds	r24, 0x0088
    1046:	90 91 89 00 	lds	r25, 0x0089
    104a:	89 2b       	or	r24, r25
    104c:	49 f0       	breq	.+18     	; 0x1060 <Pwm_dec+0x1e>
    OCR1A--;
    104e:	80 91 88 00 	lds	r24, 0x0088
    1052:	90 91 89 00 	lds	r25, 0x0089
    1056:	01 97       	sbiw	r24, 0x01	; 1
    1058:	90 93 89 00 	sts	0x0089, r25
    105c:	80 93 88 00 	sts	0x0088, r24
    1060:	08 95       	ret

00001062 <Stop_Pwm>:
//****************************************
// Stop_Pwm() // Stops the PWM in off pos.
//****************************************
void Stop_Pwm(void)                         
{
    if (OCR1A == 1)
    1062:	80 91 88 00 	lds	r24, 0x0088
    1066:	90 91 89 00 	lds	r25, 0x0089
    106a:	01 97       	sbiw	r24, 0x01	; 1
    106c:	c9 f0       	breq	.+50     	; 0x10a0 <Stop_Pwm+0x3e>
      while(TCNT1 > 2);                     // Wait for PWM == 1
      while(TCNT1 < 2);                     // Wait for PWM == 0  
    }
    else
    {
      while(TCNT1 > OCR1A);                  // Wait for PWM == 1
    106e:	20 91 84 00 	lds	r18, 0x0084
    1072:	30 91 85 00 	lds	r19, 0x0085
    1076:	80 91 88 00 	lds	r24, 0x0088
    107a:	90 91 89 00 	lds	r25, 0x0089
    107e:	82 17       	cp	r24, r18
    1080:	93 07       	cpc	r25, r19
    1082:	a8 f3       	brcs	.-22     	; 0x106e <Stop_Pwm+0xc>
      while(OCR1A > TCNT1);                  // Wait for PWM == 0  
    1084:	20 91 88 00 	lds	r18, 0x0088
    1088:	30 91 89 00 	lds	r19, 0x0089
    108c:	80 91 84 00 	lds	r24, 0x0084
    1090:	90 91 85 00 	lds	r25, 0x0085
    1094:	82 17       	cp	r24, r18
    1096:	93 07       	cpc	r25, r19
    1098:	a8 f3       	brcs	.-22     	; 0x1084 <Stop_Pwm+0x22>
//****************************************
// Pwm_off() 
//****************************************
void Pwm_off(void)                         
{
  TCCR1B = 0x00;
    109a:	10 92 81 00 	sts	0x0081, r1
    {
      while(TCNT1 > OCR1A);                  // Wait for PWM == 1
      while(OCR1A > TCNT1);                  // Wait for PWM == 0  
    }
    Pwm_off();
}    
    109e:	08 95       	ret
//****************************************
void Stop_Pwm(void)                         
{
    if (OCR1A == 1)
    {
      while(TCNT1 > 2);                     // Wait for PWM == 1
    10a0:	80 91 84 00 	lds	r24, 0x0084
    10a4:	90 91 85 00 	lds	r25, 0x0085
    10a8:	03 97       	sbiw	r24, 0x03	; 3
    10aa:	d0 f7       	brcc	.-12     	; 0x10a0 <Stop_Pwm+0x3e>
      while(TCNT1 < 2);                     // Wait for PWM == 0  
    10ac:	80 91 84 00 	lds	r24, 0x0084
    10b0:	90 91 85 00 	lds	r25, 0x0085
    10b4:	02 97       	sbiw	r24, 0x02	; 2
    10b6:	88 f7       	brcc	.-30     	; 0x109a <Stop_Pwm+0x38>
    10b8:	80 91 84 00 	lds	r24, 0x0084
    10bc:	90 91 85 00 	lds	r25, 0x0085
    10c0:	02 97       	sbiw	r24, 0x02	; 2
    10c2:	a0 f3       	brcs	.-24     	; 0x10ac <Stop_Pwm+0x4a>
    10c4:	ea cf       	rjmp	.-44     	; 0x109a <Stop_Pwm+0x38>

000010c6 <Measure>:
int Measure(unsigned char value)
{
  char i;
  int av;

  wdt_reset();
    10c6:	a8 95       	wdr

  switch (value)
    10c8:	88 23       	and	r24, r24
    10ca:	19 f5       	brne	.+70     	; 0x1112 <Measure+0x4c>
  {
    case VOLTAGE: 
        ADMUX = VBAT2;
    10cc:	10 92 7c 00 	sts	0x007C, r1
    10d0:	48 e0       	ldi	r20, 0x08	; 8
    10d2:	20 e0       	ldi	r18, 0x00	; 0
    10d4:	30 e0       	ldi	r19, 0x00	; 0
        break;
   }  
    //Calculate a average out of the next 8 A/D conversions
    for(av=0,i=8;i;--i)
    {
        ADCSRA |= 0x40;                      // start new A/D conversion
    10d6:	80 91 7a 00 	lds	r24, 0x007A
    10da:	80 64       	ori	r24, 0x40	; 64
    10dc:	80 93 7a 00 	sts	0x007A, r24
        while (!(ADCSRA & (1<<ADIF)))        // wait until ADC is ready
    10e0:	80 91 7a 00 	lds	r24, 0x007A
    10e4:	84 ff       	sbrs	r24, 4
    10e6:	fc cf       	rjmp	.-8      	; 0x10e0 <Measure+0x1a>
            ;      
        av = av+ADC;
    10e8:	80 91 78 00 	lds	r24, 0x0078
    10ec:	90 91 79 00 	lds	r25, 0x0079
    10f0:	28 0f       	add	r18, r24
    10f2:	39 1f       	adc	r19, r25
    case CURRENT: 
        ADMUX = IBAT2;
        break;
   }  
    //Calculate a average out of the next 8 A/D conversions
    for(av=0,i=8;i;--i)
    10f4:	41 50       	subi	r20, 0x01	; 1
    10f6:	79 f7       	brne	.-34     	; 0x10d6 <Measure+0x10>
        while (!(ADCSRA & (1<<ADIF)))        // wait until ADC is ready
            ;      
        av = av+ADC;
    }
    av = av>>3;  // divide by 8
    CLRBIT(ADCSRA,ADIF);                     // clear ADC interrupt flag
    10f8:	80 91 7a 00 	lds	r24, 0x007A
    10fc:	8b 7f       	andi	r24, 0xFB	; 251
    10fe:	80 93 7a 00 	sts	0x007A, r24
    1102:	35 95       	asr	r19
    1104:	27 95       	ror	r18
    1106:	35 95       	asr	r19
    1108:	27 95       	ror	r18
    110a:	35 95       	asr	r19
    110c:	27 95       	ror	r18

    return(av);  
}
    110e:	c9 01       	movw	r24, r18
    1110:	08 95       	ret
  char i;
  int av;

  wdt_reset();

  switch (value)
    1112:	81 30       	cpi	r24, 0x01	; 1
    1114:	21 f0       	breq	.+8      	; 0x111e <Measure+0x58>
  {
    case VOLTAGE: 
        ADMUX = VBAT2;
        break;   
    case CURRENT: 
        ADMUX = IBAT2;
    1116:	48 e0       	ldi	r20, 0x08	; 8
    1118:	20 e0       	ldi	r18, 0x00	; 0
    111a:	30 e0       	ldi	r19, 0x00	; 0
    111c:	dc cf       	rjmp	.-72     	; 0x10d6 <Measure+0x10>
    111e:	80 93 7c 00 	sts	0x007C, r24
    1122:	48 e0       	ldi	r20, 0x08	; 8
    1124:	20 e0       	ldi	r18, 0x00	; 0
    1126:	30 e0       	ldi	r19, 0x00	; 0
    1128:	d6 cf       	rjmp	.-84     	; 0x10d6 <Measure+0x10>

0000112a <Error>:
//*************************************************
// A Charging Error has occured
//*************************************************
void Error(void)
{
            Stop_Pwm();
    112a:	9b df       	rcall	.-202    	; 0x1062 <Stop_Pwm>
            LED_OFF_ALL;            
    112c:	85 b1       	in	r24, 0x05	; 5
    112e:	8f 73       	andi	r24, 0x3F	; 63
    1130:	85 b9       	out	0x05, r24	; 5
}
    1132:	08 95       	ret

00001134 <Calc_IBatt>:

//***************************************************
// Calc_IBatt
//***************************************************
unsigned int Calc_IBatt(unsigned int data)
{
    1134:	24 e5       	ldi	r18, 0x54	; 84
    1136:	30 e0       	ldi	r19, 0x00	; 0
    1138:	ac 01       	movw	r20, r24
    113a:	42 9f       	mul	r20, r18
    113c:	c0 01       	movw	r24, r0
    113e:	43 9f       	mul	r20, r19
    1140:	90 0d       	add	r25, r0
    1142:	52 9f       	mul	r21, r18
    1144:	90 0d       	add	r25, r0
    1146:	11 24       	eor	r1, r1
    1148:	6a e0       	ldi	r22, 0x0A	; 10
    114a:	70 e0       	ldi	r23, 0x00	; 0
    114c:	e0 d6       	rcall	.+3520   	; 0x1f0e <__udivmodhi4>
    114e:	cb 01       	movw	r24, r22
  unsigned int z;
  
    z = (data*OPAMP_CURRENT_STEP)/10;
    return(z);
}
    1150:	08 95       	ret

00001152 <Calc_VBatt>:

//***************************************************
// Calc_IBatt
//***************************************************
unsigned int Calc_VBatt(unsigned int data)
{
    1152:	9c 01       	movw	r18, r24
    1154:	22 0f       	add	r18, r18
    1156:	33 1f       	adc	r19, r19
    1158:	28 0f       	add	r18, r24
    115a:	39 1f       	adc	r19, r25
    115c:	a9 01       	movw	r20, r18
    115e:	44 0f       	add	r20, r20
    1160:	55 1f       	adc	r21, r21
    1162:	44 0f       	add	r20, r20
    1164:	55 1f       	adc	r21, r21
    1166:	44 0f       	add	r20, r20
    1168:	55 1f       	adc	r21, r21
    116a:	42 0f       	add	r20, r18
    116c:	53 1f       	adc	r21, r19
  unsigned int z;
  
    z = (data*OPAMP_VOLTAGE_STEP) + ((data*OPAMP_VOLTAGE_STEP_MINOR)/100) ;
    return(z);
}
    116e:	ca 01       	movw	r24, r20
    1170:	08 95       	ret

00001172 <Check_Pack_Connected>:
  // Determine if the MISO pin is being pulled low
  // Returns 1 : pack connected 0: no pack connected
  //**************************************************  
  u08 Check_Pack_Connected(void)
  {
    if(COMMS_SPI_MISO_READ == 0)
    1172:	83 b1       	in	r24, 0x03	; 3
    1174:	82 95       	swap	r24
    1176:	8f 70       	andi	r24, 0x0F	; 15
    1178:	80 95       	com	r24
      return(1);
    else
      return(0);
  }
    117a:	81 70       	andi	r24, 0x01	; 1
    117c:	08 95       	ret

0000117e <Comms_Master_SPI_Init>:
  // Initialize the Port Pins
  //**************************************************
  void Comms_Master_SPI_Init(void)
  {
    // Make input and output pins
    SPI_PORT_DDR = SPI_PORT_DDR | (1<<SPI_SCK) | (1<<SPI_MOSI);
    117e:	84 b1       	in	r24, 0x04	; 4
    1180:	88 62       	ori	r24, 0x28	; 40
    1182:	84 b9       	out	0x04, r24	; 4
    SPI_PORT_DDR = SPI_PORT_DDR &~(1<<SPI_MISO);  
    1184:	24 98       	cbi	0x04, 4	; 4
    // No Enable Pull Up on MISO
    COMMS_SPI_MISO_1;  
    1186:	2c 9a       	sbi	0x05, 4	; 5
    // SCK low level
    COMMS_SPI_SCK_0;
    1188:	2d 98       	cbi	0x05, 5	; 5
    COMMS_SPI_MOSI_1;
    118a:	2b 9a       	sbi	0x05, 3	; 5
   
  }
    118c:	08 95       	ret

0000118e <Comms_Master_WaitBitTime>:
  // void Comms_WaitBitTime(void)
  // Waits a bit period
  //**************************************************
  void Comms_Master_WaitBitTime(void)
  {
      SystemTimers.us_tick=0;
    118e:	10 92 c0 01 	sts	0x01C0, r1
    1192:	10 92 bf 01 	sts	0x01BF, r1
      while(SystemTimers.us_tick< MASTER_WAITBITTIME)
    1196:	80 91 bf 01 	lds	r24, 0x01BF
    119a:	90 91 c0 01 	lds	r25, 0x01C0
    119e:	8b 34       	cpi	r24, 0x4B	; 75
    11a0:	91 05       	cpc	r25, r1
    11a2:	48 f4       	brcc	.+18     	; 0x11b6 <Comms_Master_WaitBitTime+0x28>
      {
        asm volatile("nop\n\t");
    11a4:	00 00       	nop
        wdt_reset();
    11a6:	a8 95       	wdr
  // Waits a bit period
  //**************************************************
  void Comms_Master_WaitBitTime(void)
  {
      SystemTimers.us_tick=0;
      while(SystemTimers.us_tick< MASTER_WAITBITTIME)
    11a8:	80 91 bf 01 	lds	r24, 0x01BF
    11ac:	90 91 c0 01 	lds	r25, 0x01C0
    11b0:	8b 34       	cpi	r24, 0x4B	; 75
    11b2:	91 05       	cpc	r25, r1
    11b4:	b8 f3       	brcs	.-18     	; 0x11a4 <Comms_Master_WaitBitTime+0x16>
    11b6:	08 95       	ret

000011b8 <Comms_Master_WaitSetupTime>:
      }
  }
  
  void Comms_Master_WaitSetupTime(void)
  {
      SystemTimers.us_tick=0;
    11b8:	10 92 c0 01 	sts	0x01C0, r1
    11bc:	10 92 bf 01 	sts	0x01BF, r1
      while(SystemTimers.us_tick< MASTER_WAITSETUP)
    11c0:	80 91 bf 01 	lds	r24, 0x01BF
    11c4:	90 91 c0 01 	lds	r25, 0x01C0
    11c8:	0a 97       	sbiw	r24, 0x0a	; 10
    11ca:	40 f4       	brcc	.+16     	; 0x11dc <Comms_Master_WaitSetupTime+0x24>
      {
        asm volatile("nop\n\t");
    11cc:	00 00       	nop
        wdt_reset();        
    11ce:	a8 95       	wdr
  }
  
  void Comms_Master_WaitSetupTime(void)
  {
      SystemTimers.us_tick=0;
      while(SystemTimers.us_tick< MASTER_WAITSETUP)
    11d0:	80 91 bf 01 	lds	r24, 0x01BF
    11d4:	90 91 c0 01 	lds	r25, 0x01C0
    11d8:	0a 97       	sbiw	r24, 0x0a	; 10
    11da:	c0 f3       	brcs	.-16     	; 0x11cc <Comms_Master_WaitSetupTime+0x14>
    11dc:	08 95       	ret

000011de <Comms_Master_WriteByte>:
  //**************************************************
  // void Comms_SendByte(u08 data)
  // Send a Byte to the Battery Pack
  //**************************************************
  void Comms_Master_WriteByte(u08 data)
  {
    11de:	38 2f       	mov	r19, r24
  u08 i;
      wdt_reset();
    11e0:	a8 95       	wdr
    11e2:	20 e0       	ldi	r18, 0x00	; 0
    // Clock line is low, and a rising edge latches in data
    for(i=0;i<8;i++)
    {
      u08 bit = data & 0x80;
      
      if(bit)
    11e4:	37 ff       	sbrs	r19, 7
    11e6:	43 c0       	rjmp	.+134    	; 0x126e <Comms_Master_WriteByte+0x90>
        COMMS_SPI_MOSI_1;
    11e8:	2b 9a       	sbi	0x05, 3	; 5
      }
  }
  
  void Comms_Master_WaitSetupTime(void)
  {
      SystemTimers.us_tick=0;
    11ea:	10 92 c0 01 	sts	0x01C0, r1
    11ee:	10 92 bf 01 	sts	0x01BF, r1
      while(SystemTimers.us_tick< MASTER_WAITSETUP)
    11f2:	80 91 bf 01 	lds	r24, 0x01BF
    11f6:	90 91 c0 01 	lds	r25, 0x01C0
    11fa:	0a 97       	sbiw	r24, 0x0a	; 10
    11fc:	40 f4       	brcc	.+16     	; 0x120e <Comms_Master_WriteByte+0x30>
      {
        asm volatile("nop\n\t");
    11fe:	00 00       	nop
        wdt_reset();        
    1200:	a8 95       	wdr
  }
  
  void Comms_Master_WaitSetupTime(void)
  {
      SystemTimers.us_tick=0;
      while(SystemTimers.us_tick< MASTER_WAITSETUP)
    1202:	80 91 bf 01 	lds	r24, 0x01BF
    1206:	90 91 c0 01 	lds	r25, 0x01C0
    120a:	0a 97       	sbiw	r24, 0x0a	; 10
    120c:	c0 f3       	brcs	.-16     	; 0x11fe <Comms_Master_WriteByte+0x20>
          LED_OFF_GREEN;        
      #endif
          
      data = data<<1;
      Comms_Master_WaitSetupTime();
      COMMS_SPI_SCK_1;
    120e:	2d 9a       	sbi	0x05, 5	; 5
  // void Comms_WaitBitTime(void)
  // Waits a bit period
  //**************************************************
  void Comms_Master_WaitBitTime(void)
  {
      SystemTimers.us_tick=0;
    1210:	10 92 c0 01 	sts	0x01C0, r1
    1214:	10 92 bf 01 	sts	0x01BF, r1
      while(SystemTimers.us_tick< MASTER_WAITBITTIME)
    1218:	80 91 bf 01 	lds	r24, 0x01BF
    121c:	90 91 c0 01 	lds	r25, 0x01C0
    1220:	8b 34       	cpi	r24, 0x4B	; 75
    1222:	91 05       	cpc	r25, r1
    1224:	48 f4       	brcc	.+18     	; 0x1238 <Comms_Master_WriteByte+0x5a>
      {
        asm volatile("nop\n\t");
    1226:	00 00       	nop
        wdt_reset();
    1228:	a8 95       	wdr
  // Waits a bit period
  //**************************************************
  void Comms_Master_WaitBitTime(void)
  {
      SystemTimers.us_tick=0;
      while(SystemTimers.us_tick< MASTER_WAITBITTIME)
    122a:	80 91 bf 01 	lds	r24, 0x01BF
    122e:	90 91 c0 01 	lds	r25, 0x01C0
    1232:	8b 34       	cpi	r24, 0x4B	; 75
    1234:	91 05       	cpc	r25, r1
    1236:	b8 f3       	brcs	.-18     	; 0x1226 <Comms_Master_WriteByte+0x48>
      #ifdef COMMS_LED_DEBUG      
        LED_ON_YELLOW;    
      #endif
      Comms_Master_WaitBitTime();
      
      COMMS_SPI_SCK_0;
    1238:	2d 98       	cbi	0x05, 5	; 5
  // void Comms_WaitBitTime(void)
  // Waits a bit period
  //**************************************************
  void Comms_Master_WaitBitTime(void)
  {
      SystemTimers.us_tick=0;
    123a:	10 92 c0 01 	sts	0x01C0, r1
    123e:	10 92 bf 01 	sts	0x01BF, r1
      while(SystemTimers.us_tick< MASTER_WAITBITTIME)
    1242:	80 91 bf 01 	lds	r24, 0x01BF
    1246:	90 91 c0 01 	lds	r25, 0x01C0
    124a:	8b 34       	cpi	r24, 0x4B	; 75
    124c:	91 05       	cpc	r25, r1
    124e:	48 f4       	brcc	.+18     	; 0x1262 <Comms_Master_WriteByte+0x84>
      {
        asm volatile("nop\n\t");
    1250:	00 00       	nop
        wdt_reset();
    1252:	a8 95       	wdr
  // Waits a bit period
  //**************************************************
  void Comms_Master_WaitBitTime(void)
  {
      SystemTimers.us_tick=0;
      while(SystemTimers.us_tick< MASTER_WAITBITTIME)
    1254:	80 91 bf 01 	lds	r24, 0x01BF
    1258:	90 91 c0 01 	lds	r25, 0x01C0
    125c:	8b 34       	cpi	r24, 0x4B	; 75
    125e:	91 05       	cpc	r25, r1
    1260:	b8 f3       	brcs	.-18     	; 0x1250 <Comms_Master_WriteByte+0x72>
  {
  u08 i;
      wdt_reset();

    // Clock line is low, and a rising edge latches in data
    for(i=0;i<8;i++)
    1262:	2f 5f       	subi	r18, 0xFF	; 255
    1264:	28 30       	cpi	r18, 0x08	; 8
    1266:	29 f0       	breq	.+10     	; 0x1272 <Comms_Master_WriteByte+0x94>
          LED_ON_GREEN;    
        else
          LED_OFF_GREEN;        
      #endif
          
      data = data<<1;
    1268:	33 0f       	add	r19, r19
    // Clock line is low, and a rising edge latches in data
    for(i=0;i<8;i++)
    {
      u08 bit = data & 0x80;
      
      if(bit)
    126a:	37 fd       	sbrc	r19, 7
    126c:	bd cf       	rjmp	.-134    	; 0x11e8 <Comms_Master_WriteByte+0xa>
        COMMS_SPI_MOSI_1;
      else
        COMMS_SPI_MOSI_0;
    126e:	2b 98       	cbi	0x05, 3	; 5
    1270:	bc cf       	rjmp	.-136    	; 0x11ea <Comms_Master_WriteByte+0xc>
    1272:	08 95       	ret

00001274 <Comms_Master_SendPkt>:
  //**************************************************
  // void Comms_SendPkt(u08 *pkt, u08 len)
  // Sends a packet of information 
  //**************************************************
  void Comms_Master_SendPkt(u08 *pkt, u08 len)
  {
    1274:	0f 93       	push	r16
    1276:	1f 93       	push	r17
    1278:	cf 93       	push	r28
    127a:	df 93       	push	r29
    127c:	08 2f       	mov	r16, r24
    127e:	16 2f       	mov	r17, r22
  u08 i;
    wdt_reset();
    1280:	a8 95       	wdr

    for(i=0;i<len;i++)
    1282:	66 23       	and	r22, r22
    1284:	41 f0       	breq	.+16     	; 0x1296 <Comms_Master_SendPkt+0x22>
    1286:	9c 01       	movw	r18, r24
    1288:	e9 01       	movw	r28, r18
      Comms_Master_WriteByte(*pkt++);
    128a:	89 91       	ld	r24, Y+
    128c:	a8 df       	rcall	.-176    	; 0x11de <Comms_Master_WriteByte>
  void Comms_Master_SendPkt(u08 *pkt, u08 len)
  {
  u08 i;
    wdt_reset();

    for(i=0;i<len;i++)
    128e:	9e 01       	movw	r18, r28
    1290:	20 1b       	sub	r18, r16
    1292:	21 17       	cp	r18, r17
    1294:	d0 f3       	brcs	.-12     	; 0x128a <Comms_Master_SendPkt+0x16>
      Comms_Master_WriteByte(*pkt++);
  }
    1296:	df 91       	pop	r29
    1298:	cf 91       	pop	r28
    129a:	1f 91       	pop	r17
    129c:	0f 91       	pop	r16
    129e:	08 95       	ret

000012a0 <Comms_Master_ReadByte>:
  //**************************************************
  u08 Comms_Master_ReadByte(void)
  {
  u08 i,data,bit;
  
    wdt_reset();
    12a0:	a8 95       	wdr
    12a2:	30 e0       	ldi	r19, 0x00	; 0
    12a4:	20 e0       	ldi	r18, 0x00	; 0
    // Clock line is low, and a rising edge signals time for new data
    // data bit is sampled just before the SCK line is changed to low
    data = 0;
    for(i=0;i<8;i++)
    {
      COMMS_SPI_SCK_1;
    12a6:	2d 9a       	sbi	0x05, 5	; 5
  // void Comms_WaitBitTime(void)
  // Waits a bit period
  //**************************************************
  void Comms_Master_WaitBitTime(void)
  {
      SystemTimers.us_tick=0;
    12a8:	10 92 c0 01 	sts	0x01C0, r1
    12ac:	10 92 bf 01 	sts	0x01BF, r1
      while(SystemTimers.us_tick< MASTER_WAITBITTIME)
    12b0:	80 91 bf 01 	lds	r24, 0x01BF
    12b4:	90 91 c0 01 	lds	r25, 0x01C0
    12b8:	8b 34       	cpi	r24, 0x4B	; 75
    12ba:	91 05       	cpc	r25, r1
    12bc:	48 f4       	brcc	.+18     	; 0x12d0 <Comms_Master_ReadByte+0x30>
      {
        asm volatile("nop\n\t");
    12be:	00 00       	nop
        wdt_reset();
    12c0:	a8 95       	wdr
  // Waits a bit period
  //**************************************************
  void Comms_Master_WaitBitTime(void)
  {
      SystemTimers.us_tick=0;
      while(SystemTimers.us_tick< MASTER_WAITBITTIME)
    12c2:	80 91 bf 01 	lds	r24, 0x01BF
    12c6:	90 91 c0 01 	lds	r25, 0x01C0
    12ca:	8b 34       	cpi	r24, 0x4B	; 75
    12cc:	91 05       	cpc	r25, r1
    12ce:	b8 f3       	brcs	.-18     	; 0x12be <Comms_Master_ReadByte+0x1e>
    {
      COMMS_SPI_SCK_1;
      Comms_Master_WaitBitTime();
    
      bit = COMMS_SPI_MISO_READ;
      data = data <<1;    
    12d0:	22 0f       	add	r18, r18
      if(bit)    
    12d2:	1c 99       	sbic	0x03, 4	; 3
        data |= 0x01;
    12d4:	21 60       	ori	r18, 0x01	; 1
        else
          LED_OFF_GREEN;        
      #endif
          
      
      COMMS_SPI_SCK_0;
    12d6:	2d 98       	cbi	0x05, 5	; 5
  // void Comms_WaitBitTime(void)
  // Waits a bit period
  //**************************************************
  void Comms_Master_WaitBitTime(void)
  {
      SystemTimers.us_tick=0;
    12d8:	10 92 c0 01 	sts	0x01C0, r1
    12dc:	10 92 bf 01 	sts	0x01BF, r1
      while(SystemTimers.us_tick< MASTER_WAITBITTIME)
    12e0:	80 91 bf 01 	lds	r24, 0x01BF
    12e4:	90 91 c0 01 	lds	r25, 0x01C0
    12e8:	8b 34       	cpi	r24, 0x4B	; 75
    12ea:	91 05       	cpc	r25, r1
    12ec:	48 f4       	brcc	.+18     	; 0x1300 <Comms_Master_ReadByte+0x60>
      {
        asm volatile("nop\n\t");
    12ee:	00 00       	nop
        wdt_reset();
    12f0:	a8 95       	wdr
  // Waits a bit period
  //**************************************************
  void Comms_Master_WaitBitTime(void)
  {
      SystemTimers.us_tick=0;
      while(SystemTimers.us_tick< MASTER_WAITBITTIME)
    12f2:	80 91 bf 01 	lds	r24, 0x01BF
    12f6:	90 91 c0 01 	lds	r25, 0x01C0
    12fa:	8b 34       	cpi	r24, 0x4B	; 75
    12fc:	91 05       	cpc	r25, r1
    12fe:	b8 f3       	brcs	.-18     	; 0x12ee <Comms_Master_ReadByte+0x4e>
    wdt_reset();

    // Clock line is low, and a rising edge signals time for new data
    // data bit is sampled just before the SCK line is changed to low
    data = 0;
    for(i=0;i<8;i++)
    1300:	3f 5f       	subi	r19, 0xFF	; 255
    1302:	38 30       	cpi	r19, 0x08	; 8
    1304:	81 f6       	brne	.-96     	; 0x12a6 <Comms_Master_ReadByte+0x6>
        LED_OFF_YELLOW;
      #endif
  
    }
    return(data);
  }
    1306:	82 2f       	mov	r24, r18
    1308:	08 95       	ret

0000130a <Comms_Master_GetPkt>:
  //**************************************************
  // void Comms_SendPkt(u08 *pkt, u08 len)
  // Sends a packet of information 
  //**************************************************
  void Comms_Master_GetPkt(u08 *pkt, u08 len)
  {
    130a:	0f 93       	push	r16
    130c:	1f 93       	push	r17
    130e:	cf 93       	push	r28
    1310:	df 93       	push	r29
    1312:	08 2f       	mov	r16, r24
    1314:	16 2f       	mov	r17, r22
  u08 i;
    wdt_reset();
    1316:	a8 95       	wdr
    lcdClear();
    lcdprintat(0,0,"Bytes received :");             
    lcdGotoXY(0,1);	     
  #endif  
    
    for(i=0;i<len;i++)
    1318:	66 23       	and	r22, r22
    131a:	41 f0       	breq	.+16     	; 0x132c <Comms_Master_GetPkt+0x22>
    131c:	9c 01       	movw	r18, r24
    131e:	e9 01       	movw	r28, r18
    {
      *pkt = Comms_Master_ReadByte();
    1320:	bf df       	rcall	.-130    	; 0x12a0 <Comms_Master_ReadByte>
    1322:	89 93       	st	Y+, r24
    lcdClear();
    lcdprintat(0,0,"Bytes received :");             
    lcdGotoXY(0,1);	     
  #endif  
    
    for(i=0;i<len;i++)
    1324:	9e 01       	movw	r18, r28
    1326:	20 1b       	sub	r18, r16
    1328:	21 17       	cp	r18, r17
    132a:	d0 f3       	brcs	.-12     	; 0x1320 <Comms_Master_GetPkt+0x16>
      lcdprint_hex_u08(*pkt);
      lcdprint(" ");
  #endif        
      pkt++;
    }
  }
    132c:	df 91       	pop	r29
    132e:	cf 91       	pop	r28
    1330:	1f 91       	pop	r17
    1332:	0f 91       	pop	r16
    1334:	08 95       	ret

00001336 <Comms_Master_SendandReceive_CmdData>:
  //**************************************************
  // u08 Comms_Master_SendandReceive_CmdData(u08 *masterdata, u08 *slavedata)
  // Returns the command code byte returned by the slave
  //**************************************************
  u08 Comms_Master_SendandReceive_CmdData(u08 *masterdata, u08 *slavedata,u08 checkreturndata)
  {
    1336:	bf 92       	push	r11
    1338:	cf 92       	push	r12
    133a:	df 92       	push	r13
    133c:	ef 92       	push	r14
    133e:	ff 92       	push	r15
    1340:	0f 93       	push	r16
    1342:	1f 93       	push	r17
    1344:	cf 93       	push	r28
    1346:	df 93       	push	r29
    1348:	7c 01       	movw	r14, r24
    134a:	6b 01       	movw	r12, r22
    134c:	b4 2e       	mov	r11, r20
  u08 master_command;
    wdt_reset();
    134e:	a8 95       	wdr
  
    master_command = *masterdata;
    1350:	fc 01       	movw	r30, r24
    1352:	00 81       	ld	r16, Z
    Comms_Master_WriteByte(0xFF);
    1354:	8f ef       	ldi	r24, 0xFF	; 255
    1356:	43 df       	rcall	.-378    	; 0x11de <Comms_Master_WriteByte>
    Comms_Master_WriteByte(0x00);
    1358:	80 e0       	ldi	r24, 0x00	; 0
    135a:	41 df       	rcall	.-382    	; 0x11de <Comms_Master_WriteByte>
    Comms_Master_WriteByte(0x42);    
    135c:	82 e4       	ldi	r24, 0x42	; 66
    135e:	3f df       	rcall	.-386    	; 0x11de <Comms_Master_WriteByte>
    1360:	e7 01       	movw	r28, r14
    1362:	10 e0       	ldi	r17, 0x00	; 0
    u08 i;
    for(i=0;i< COMMS_DATA_BYTES;i++)
      Comms_Master_WriteByte(*masterdata++);    
    1364:	89 91       	ld	r24, Y+
    1366:	3b df       	rcall	.-394    	; 0x11de <Comms_Master_WriteByte>
    master_command = *masterdata;
    Comms_Master_WriteByte(0xFF);
    Comms_Master_WriteByte(0x00);
    Comms_Master_WriteByte(0x42);    
    u08 i;
    for(i=0;i< COMMS_DATA_BYTES;i++)
    1368:	1f 5f       	subi	r17, 0xFF	; 255
    136a:	15 30       	cpi	r17, 0x05	; 5
    136c:	d9 f7       	brne	.-10     	; 0x1364 <Comms_Master_SendandReceive_CmdData+0x2e>
volatile u16 gFAST_CURRENT_MAX;
volatile u16 gFAST_VOLTAGE_TERMINATE;

void Waiter(u16 wt)
{
    SystemTimers.us_tick=0;
    136e:	10 92 c0 01 	sts	0x01C0, r1
    1372:	10 92 bf 01 	sts	0x01BF, r1
    while(SystemTimers.us_tick< wt)
    1376:	80 91 bf 01 	lds	r24, 0x01BF
    137a:	90 91 c0 01 	lds	r25, 0x01C0
    137e:	8f 5f       	subi	r24, 0xFF	; 255
    1380:	9f 43       	sbci	r25, 0x3F	; 63
    1382:	48 f4       	brcc	.+18     	; 0x1396 <Comms_Master_SendandReceive_CmdData+0x60>
    {
      asm volatile("nop\n\t");
    1384:	00 00       	nop
      wdt_reset();
    1386:	a8 95       	wdr
volatile u16 gFAST_VOLTAGE_TERMINATE;

void Waiter(u16 wt)
{
    SystemTimers.us_tick=0;
    while(SystemTimers.us_tick< wt)
    1388:	80 91 bf 01 	lds	r24, 0x01BF
    138c:	90 91 c0 01 	lds	r25, 0x01C0
    1390:	8f 5f       	subi	r24, 0xFF	; 255
    1392:	9f 43       	sbci	r25, 0x3F	; 63
    1394:	b8 f3       	brcs	.-18     	; 0x1384 <Comms_Master_SendandReceive_CmdData+0x4e>
      Comms_Master_WriteByte(*masterdata++);    
  
    // Pause here for the slave data
    Waiter(0x3FFF);

    Comms_Master_GetPkt(slavedata,COMMS_DATA_BYTES);
    1396:	c6 01       	movw	r24, r12
    1398:	65 e0       	ldi	r22, 0x05	; 5
    139a:	b7 df       	rcall	.-146    	; 0x130a <Comms_Master_GetPkt>
    // Check if the Slave responded
    u08 returndata_error =0;
    if(*slavedata == ((master_command)+0x10))
    139c:	f6 01       	movw	r30, r12
    139e:	60 81       	ld	r22, Z
    13a0:	26 2f       	mov	r18, r22
    13a2:	30 e0       	ldi	r19, 0x00	; 0
    13a4:	80 2f       	mov	r24, r16
    13a6:	90 e0       	ldi	r25, 0x00	; 0
    13a8:	40 96       	adiw	r24, 0x10	; 16
    13aa:	28 17       	cp	r18, r24
    13ac:	39 07       	cpc	r19, r25
    13ae:	59 f0       	breq	.+22     	; 0x13c6 <Comms_Master_SendandReceive_CmdData+0x90>
    13b0:	81 e0       	ldi	r24, 0x01	; 1
    }
    else
      returndata_error = 1;
      
    return(returndata_error);
  }  
    13b2:	df 91       	pop	r29
    13b4:	cf 91       	pop	r28
    13b6:	1f 91       	pop	r17
    13b8:	0f 91       	pop	r16
    13ba:	ff 90       	pop	r15
    13bc:	ef 90       	pop	r14
    13be:	df 90       	pop	r13
    13c0:	cf 90       	pop	r12
    13c2:	bf 90       	pop	r11
    13c4:	08 95       	ret
    // Check if the Slave responded
    u08 returndata_error =0;
    if(*slavedata == ((master_command)+0x10))
    {
      // ONLY ADD IN ONCE WE CAN DO A PACK UPDATE
      if(checkreturndata)
    13c6:	bb 20       	and	r11, r11
    13c8:	51 f0       	breq	.+20     	; 0x13de <Comms_Master_SendandReceive_CmdData+0xa8>
      {
        for(i=0;i<COMMS_DATA_BYTES;i++)
          if(*slavedata != *masterdata)
    13ca:	f7 01       	movw	r30, r14
    13cc:	95 81       	ldd	r25, Z+5	; 0x05
    13ce:	20 e0       	ldi	r18, 0x00	; 0
    13d0:	80 e0       	ldi	r24, 0x00	; 0
    13d2:	69 13       	cpse	r22, r25
    13d4:	81 e0       	ldi	r24, 0x01	; 1
    if(*slavedata == ((master_command)+0x10))
    {
      // ONLY ADD IN ONCE WE CAN DO A PACK UPDATE
      if(checkreturndata)
      {
        for(i=0;i<COMMS_DATA_BYTES;i++)
    13d6:	2f 5f       	subi	r18, 0xFF	; 255
    13d8:	25 30       	cpi	r18, 0x05	; 5
    13da:	d9 f7       	brne	.-10     	; 0x13d2 <Comms_Master_SendandReceive_CmdData+0x9c>
    13dc:	ea cf       	rjmp	.-44     	; 0x13b2 <Comms_Master_SendandReceive_CmdData+0x7c>
    // Check if the Slave responded
    u08 returndata_error =0;
    if(*slavedata == ((master_command)+0x10))
    {
      // ONLY ADD IN ONCE WE CAN DO A PACK UPDATE
      if(checkreturndata)
    13de:	80 e0       	ldi	r24, 0x00	; 0
    13e0:	e8 cf       	rjmp	.-48     	; 0x13b2 <Comms_Master_SendandReceive_CmdData+0x7c>

000013e2 <Comms_Send_Hello_Pack>:
  //**************************************************
  // u08 Comms_Send_Hello_Pack(void)
  // Determine if the pack is connected.
  //**************************************************
  u08 Comms_Send_Hello_Pack(void)
  {       
    13e2:	ef 92       	push	r14
    13e4:	ff 92       	push	r15
    13e6:	0f 93       	push	r16
    13e8:	1f 93       	push	r17
    13ea:	df 93       	push	r29
    13ec:	cf 93       	push	r28
    13ee:	cd b7       	in	r28, 0x3d	; 61
    13f0:	de b7       	in	r29, 0x3e	; 62
    13f2:	2a 97       	sbiw	r28, 0x0a	; 10
    13f4:	0f b6       	in	r0, 0x3f	; 63
    13f6:	f8 94       	cli
    13f8:	de bf       	out	0x3e, r29	; 62
    13fa:	0f be       	out	0x3f, r0	; 63
    13fc:	cd bf       	out	0x3d, r28	; 61
    u08 masterdata[COMMS_DATA_BYTES];
    u08 slavedata[COMMS_DATA_BYTES];
    
    // Check if the pack responds to a request
    masterdata[0] = CMD_GET_PACKINFO;
    13fe:	80 e5       	ldi	r24, 0x50	; 80
    1400:	89 83       	std	Y+1, r24	; 0x01
    Comms_Master_SendandReceive_CmdData(masterdata,slavedata,0);
    1402:	56 e0       	ldi	r21, 0x06	; 6
    1404:	e5 2e       	mov	r14, r21
    1406:	f1 2c       	mov	r15, r1
    1408:	ec 0e       	add	r14, r28
    140a:	fd 1e       	adc	r15, r29
    140c:	8e 01       	movw	r16, r28
    140e:	0f 5f       	subi	r16, 0xFF	; 255
    1410:	1f 4f       	sbci	r17, 0xFF	; 255
    1412:	c8 01       	movw	r24, r16
    1414:	b7 01       	movw	r22, r14
    1416:	40 e0       	ldi	r20, 0x00	; 0
    1418:	8e df       	rcall	.-228    	; 0x1336 <Comms_Master_SendandReceive_CmdData>
    Comms_Master_SendandReceive_CmdData(masterdata,slavedata,0);
    141a:	c8 01       	movw	r24, r16
    141c:	b7 01       	movw	r22, r14
    141e:	40 e0       	ldi	r20, 0x00	; 0
    1420:	8a df       	rcall	.-236    	; 0x1336 <Comms_Master_SendandReceive_CmdData>
    
    return(Comms_Master_SendandReceive_CmdData(masterdata,slavedata,0));
    1422:	c8 01       	movw	r24, r16
    1424:	b7 01       	movw	r22, r14
    1426:	40 e0       	ldi	r20, 0x00	; 0
    1428:	86 df       	rcall	.-244    	; 0x1336 <Comms_Master_SendandReceive_CmdData>
  }
    142a:	2a 96       	adiw	r28, 0x0a	; 10
    142c:	0f b6       	in	r0, 0x3f	; 63
    142e:	f8 94       	cli
    1430:	de bf       	out	0x3e, r29	; 62
    1432:	0f be       	out	0x3f, r0	; 63
    1434:	cd bf       	out	0x3d, r28	; 61
    1436:	cf 91       	pop	r28
    1438:	df 91       	pop	r29
    143a:	1f 91       	pop	r17
    143c:	0f 91       	pop	r16
    143e:	ff 90       	pop	r15
    1440:	ef 90       	pop	r14
    1442:	08 95       	ret

00001444 <Comms_Get_PackTemperature>:
  //**************************************************
  //  u16 Comms_Get_PackTemperature(void)
  //  Get the Temperature of the battery pack
  //**************************************************
  void Comms_Get_PackTemperature(void)
  {
    1444:	df 93       	push	r29
    1446:	cf 93       	push	r28
    1448:	cd b7       	in	r28, 0x3d	; 61
    144a:	de b7       	in	r29, 0x3e	; 62
    144c:	2a 97       	sbiw	r28, 0x0a	; 10
    144e:	0f b6       	in	r0, 0x3f	; 63
    1450:	f8 94       	cli
    1452:	de bf       	out	0x3e, r29	; 62
    1454:	0f be       	out	0x3f, r0	; 63
    1456:	cd bf       	out	0x3d, r28	; 61
    u08 masterdata[COMMS_DATA_BYTES];
    u08 slavedata[COMMS_DATA_BYTES];
      
    masterdata[0] = CMD_GET_TEMPERATURE;    
    1458:	83 e5       	ldi	r24, 0x53	; 83
    145a:	89 83       	std	Y+1, r24	; 0x01
    Comms_Master_SendandReceive_CmdData(masterdata,slavedata,0);
    145c:	ce 01       	movw	r24, r28
    145e:	01 96       	adiw	r24, 0x01	; 1
    1460:	be 01       	movw	r22, r28
    1462:	6a 5f       	subi	r22, 0xFA	; 250
    1464:	7f 4f       	sbci	r23, 0xFF	; 255
    1466:	40 e0       	ldi	r20, 0x00	; 0
    1468:	66 df       	rcall	.-308    	; 0x1336 <Comms_Master_SendandReceive_CmdData>
    u16 temp = (slavedata[1]<<8) + slavedata[2];
    146a:	9f 81       	ldd	r25, Y+7	; 0x07
    146c:	80 e0       	ldi	r24, 0x00	; 0
    146e:	28 85       	ldd	r18, Y+8	; 0x08
    1470:	ac 01       	movw	r20, r24
    1472:	42 0f       	add	r20, r18
    1474:	51 1d       	adc	r21, r1
    1476:	9a 01       	movw	r18, r20


    #define MAX_TEMPERATURE_ERROR_READING 3
    // if the temperature is returned as 0 ,
    // then use previous value
    if(temp == 0)
    1478:	41 15       	cp	r20, r1
    147a:	51 05       	cpc	r21, r1
    147c:	31 f5       	brne	.+76     	; 0x14ca <Comms_Get_PackTemperature+0x86>
    {
      //if(++PackInfo.Temperature_error> MAX_TEMPERATURE_ERROR_READING)  
      if( PackInfo.Temperature == 0)
    147e:	20 91 5e 02 	lds	r18, 0x025E
    1482:	30 91 5f 02 	lds	r19, 0x025F
    1486:	21 15       	cp	r18, r1
    1488:	31 05       	cpc	r19, r1
    148a:	21 f1       	breq	.+72     	; 0x14d4 <Comms_Get_PackTemperature+0x90>
         PackInfo.Temperature  = SENSING_NTC_25DEGREES_ADC;
    }  
    else
      PackInfo.Temperature = temp;

    PackInfo.Temperature_deg = 25 + ((SENSING_NTC_25DEGREES_ADC - PackInfo.Temperature)/TEMPERATURE_GRADIENT);    
    148c:	8b e3       	ldi	r24, 0x3B	; 59
    148e:	93 e0       	ldi	r25, 0x03	; 3
    1490:	82 1b       	sub	r24, r18
    1492:	93 0b       	sbc	r25, r19
    1494:	65 e1       	ldi	r22, 0x15	; 21
    1496:	70 e0       	ldi	r23, 0x00	; 0
    1498:	3a d5       	rcall	.+2676   	; 0x1f0e <__udivmodhi4>
    149a:	67 5e       	subi	r22, 0xE7	; 231
    149c:	7f 4f       	sbci	r23, 0xFF	; 255
    149e:	70 93 61 02 	sts	0x0261, r23
    14a2:	60 93 60 02 	sts	0x0260, r22
    if(PackInfo.Temperature > SENSING_NTC_25DEGREES_ADC)
    14a6:	2c 53       	subi	r18, 0x3C	; 60
    14a8:	33 40       	sbci	r19, 0x03	; 3
    14aa:	30 f0       	brcs	.+12     	; 0x14b8 <Comms_Get_PackTemperature+0x74>
      PackInfo.Temperature_deg = 25;          
    14ac:	89 e1       	ldi	r24, 0x19	; 25
    14ae:	90 e0       	ldi	r25, 0x00	; 0
    14b0:	90 93 61 02 	sts	0x0261, r25
    14b4:	80 93 60 02 	sts	0x0260, r24
	// Previous Attiny26 Led controller
    PackInfo.Temperature_deg = 25+ ((NTC_25degrees - PackInfo.Temperature) >>4);    
    if(PackInfo.Temperature > NTC_25degrees)
      PackInfo.Temperature_deg = 25;          
*/	  
  }
    14b8:	2a 96       	adiw	r28, 0x0a	; 10
    14ba:	0f b6       	in	r0, 0x3f	; 63
    14bc:	f8 94       	cli
    14be:	de bf       	out	0x3e, r29	; 62
    14c0:	0f be       	out	0x3f, r0	; 63
    14c2:	cd bf       	out	0x3d, r28	; 61
    14c4:	cf 91       	pop	r28
    14c6:	df 91       	pop	r29
    14c8:	08 95       	ret
      //if(++PackInfo.Temperature_error> MAX_TEMPERATURE_ERROR_READING)  
      if( PackInfo.Temperature == 0)
         PackInfo.Temperature  = SENSING_NTC_25DEGREES_ADC;
    }  
    else
      PackInfo.Temperature = temp;
    14ca:	50 93 5f 02 	sts	0x025F, r21
    14ce:	40 93 5e 02 	sts	0x025E, r20
    14d2:	dc cf       	rjmp	.-72     	; 0x148c <Comms_Get_PackTemperature+0x48>
    // then use previous value
    if(temp == 0)
    {
      //if(++PackInfo.Temperature_error> MAX_TEMPERATURE_ERROR_READING)  
      if( PackInfo.Temperature == 0)
         PackInfo.Temperature  = SENSING_NTC_25DEGREES_ADC;
    14d4:	8b e3       	ldi	r24, 0x3B	; 59
    14d6:	93 e0       	ldi	r25, 0x03	; 3
    14d8:	90 93 5f 02 	sts	0x025F, r25
    14dc:	80 93 5e 02 	sts	0x025E, r24
    }  
    else
      PackInfo.Temperature = temp;

    PackInfo.Temperature_deg = 25 + ((SENSING_NTC_25DEGREES_ADC - PackInfo.Temperature)/TEMPERATURE_GRADIENT);    
    14e0:	89 e1       	ldi	r24, 0x19	; 25
    14e2:	90 e0       	ldi	r25, 0x00	; 0
    14e4:	90 93 61 02 	sts	0x0261, r25
    14e8:	80 93 60 02 	sts	0x0260, r24
    14ec:	e5 cf       	rjmp	.-54     	; 0x14b8 <Comms_Get_PackTemperature+0x74>

000014ee <Comms_Get_PackStartStopTime>:
  //**************************************************
  // u16 Comms_Get_PackTime(void)
  //  Get the Temperature of the battery pack
  //**************************************************
  u08 Comms_Get_PackStartStopTime(void)
  {
    14ee:	df 93       	push	r29
    14f0:	cf 93       	push	r28
    14f2:	cd b7       	in	r28, 0x3d	; 61
    14f4:	de b7       	in	r29, 0x3e	; 62
    14f6:	2a 97       	sbiw	r28, 0x0a	; 10
    14f8:	0f b6       	in	r0, 0x3f	; 63
    14fa:	f8 94       	cli
    14fc:	de bf       	out	0x3e, r29	; 62
    14fe:	0f be       	out	0x3f, r0	; 63
    1500:	cd bf       	out	0x3d, r28	; 61
    u08 masterdata[COMMS_DATA_BYTES];
    u08 slavedata[COMMS_DATA_BYTES];
    masterdata[0] = CMD_GET_STARTSTOPTIME;    
    1502:	85 e2       	ldi	r24, 0x25	; 37
    1504:	89 83       	std	Y+1, r24	; 0x01
    Comms_Master_SendandReceive_CmdData(masterdata,slavedata,0);
    1506:	ce 01       	movw	r24, r28
    1508:	01 96       	adiw	r24, 0x01	; 1
    150a:	be 01       	movw	r22, r28
    150c:	6a 5f       	subi	r22, 0xFA	; 250
    150e:	7f 4f       	sbci	r23, 0xFF	; 255
    1510:	40 e0       	ldi	r20, 0x00	; 0
    1512:	11 df       	rcall	.-478    	; 0x1336 <Comms_Master_SendandReceive_CmdData>
    PackInfo.StartTime.hours = slavedata[1];
    1514:	8f 81       	ldd	r24, Y+7	; 0x07
    1516:	80 93 72 02 	sts	0x0272, r24
    PackInfo.StartTime.minutes = slavedata[2];
    151a:	88 85       	ldd	r24, Y+8	; 0x08
    151c:	80 93 71 02 	sts	0x0271, r24
    PackInfo.StopTime.hours = slavedata[3];
    1520:	89 85       	ldd	r24, Y+9	; 0x09
    1522:	80 93 7c 02 	sts	0x027C, r24
    PackInfo.StopTime.minutes = slavedata[4];         
    1526:	8a 85       	ldd	r24, Y+10	; 0x0a
    1528:	80 93 7b 02 	sts	0x027B, r24
     return(0);
  }
    152c:	80 e0       	ldi	r24, 0x00	; 0
    152e:	2a 96       	adiw	r28, 0x0a	; 10
    1530:	0f b6       	in	r0, 0x3f	; 63
    1532:	f8 94       	cli
    1534:	de bf       	out	0x3e, r29	; 62
    1536:	0f be       	out	0x3f, r0	; 63
    1538:	cd bf       	out	0x3d, r28	; 61
    153a:	cf 91       	pop	r28
    153c:	df 91       	pop	r29
    153e:	08 95       	ret

00001540 <Comms_Get_RechargeCount>:
  //**************************************************
  // u08 Comms_Get_PackStartTime(void)
  //  Set the Start Time of the Pack
  //**************************************************
  u08 Comms_Get_RechargeCount(void)
  {
    1540:	df 93       	push	r29
    1542:	cf 93       	push	r28
    1544:	cd b7       	in	r28, 0x3d	; 61
    1546:	de b7       	in	r29, 0x3e	; 62
    1548:	2a 97       	sbiw	r28, 0x0a	; 10
    154a:	0f b6       	in	r0, 0x3f	; 63
    154c:	f8 94       	cli
    154e:	de bf       	out	0x3e, r29	; 62
    1550:	0f be       	out	0x3f, r0	; 63
    1552:	cd bf       	out	0x3d, r28	; 61
    u08 masterdata[COMMS_DATA_BYTES];
    u08 slavedata[COMMS_DATA_BYTES];  
    
    masterdata[0] = CMD_GET_RECHARGENO;    
    1554:	82 e5       	ldi	r24, 0x52	; 82
    1556:	89 83       	std	Y+1, r24	; 0x01
    Comms_Master_SendandReceive_CmdData(masterdata,slavedata,0);
    1558:	ce 01       	movw	r24, r28
    155a:	01 96       	adiw	r24, 0x01	; 1
    155c:	be 01       	movw	r22, r28
    155e:	6a 5f       	subi	r22, 0xFA	; 250
    1560:	7f 4f       	sbci	r23, 0xFF	; 255
    1562:	40 e0       	ldi	r20, 0x00	; 0
    1564:	e8 de       	rcall	.-560    	; 0x1336 <Comms_Master_SendandReceive_CmdData>
    PackInfo.RechargeNo = (slavedata[1]<<8) + slavedata[2];
    1566:	9f 81       	ldd	r25, Y+7	; 0x07
    1568:	80 e0       	ldi	r24, 0x00	; 0
    156a:	28 85       	ldd	r18, Y+8	; 0x08
    156c:	82 0f       	add	r24, r18
    156e:	91 1d       	adc	r25, r1
    1570:	90 93 5d 02 	sts	0x025D, r25
    1574:	80 93 5c 02 	sts	0x025C, r24
    return(0);        
  }
    1578:	80 e0       	ldi	r24, 0x00	; 0
    157a:	2a 96       	adiw	r28, 0x0a	; 10
    157c:	0f b6       	in	r0, 0x3f	; 63
    157e:	f8 94       	cli
    1580:	de bf       	out	0x3e, r29	; 62
    1582:	0f be       	out	0x3f, r0	; 63
    1584:	cd bf       	out	0x3d, r28	; 61
    1586:	cf 91       	pop	r28
    1588:	df 91       	pop	r29
    158a:	08 95       	ret

0000158c <Comms_Inc_RechargeCount>:
  //**************************************************
  // u16 Comms_Set_PackStartTime(void)
  //  Set the Start Time of the Pack
  //**************************************************
  u08 Comms_Inc_RechargeCount(void)
  {
    158c:	df 93       	push	r29
    158e:	cf 93       	push	r28
    1590:	cd b7       	in	r28, 0x3d	; 61
    1592:	de b7       	in	r29, 0x3e	; 62
    1594:	2a 97       	sbiw	r28, 0x0a	; 10
    1596:	0f b6       	in	r0, 0x3f	; 63
    1598:	f8 94       	cli
    159a:	de bf       	out	0x3e, r29	; 62
    159c:	0f be       	out	0x3f, r0	; 63
    159e:	cd bf       	out	0x3d, r28	; 61
    u08 masterdata[COMMS_DATA_BYTES];
    u08 slavedata[COMMS_DATA_BYTES];
      
    masterdata[0] = CMD_INC_RECHARGECOUNT;               
    15a0:	89 e5       	ldi	r24, 0x59	; 89
    15a2:	89 83       	std	Y+1, r24	; 0x01
    Comms_Master_SendandReceive_CmdData(masterdata,slavedata,0);      
    15a4:	ce 01       	movw	r24, r28
    15a6:	01 96       	adiw	r24, 0x01	; 1
    15a8:	be 01       	movw	r22, r28
    15aa:	6a 5f       	subi	r22, 0xFA	; 250
    15ac:	7f 4f       	sbci	r23, 0xFF	; 255
    15ae:	40 e0       	ldi	r20, 0x00	; 0
    15b0:	c2 de       	rcall	.-636    	; 0x1336 <Comms_Master_SendandReceive_CmdData>
    return(0);    
  }
    15b2:	80 e0       	ldi	r24, 0x00	; 0
    15b4:	2a 96       	adiw	r28, 0x0a	; 10
    15b6:	0f b6       	in	r0, 0x3f	; 63
    15b8:	f8 94       	cli
    15ba:	de bf       	out	0x3e, r29	; 62
    15bc:	0f be       	out	0x3f, r0	; 63
    15be:	cd bf       	out	0x3d, r28	; 61
    15c0:	cf 91       	pop	r28
    15c2:	df 91       	pop	r29
    15c4:	08 95       	ret

000015c6 <__vector_13>:

//***************************************************
// Timer1 Interrupt Overflow vector
//***************************************************
SIGNAL(SIG_OVERFLOW1)
{  
    15c6:	1f 92       	push	r1
    15c8:	0f 92       	push	r0
    15ca:	0f b6       	in	r0, 0x3f	; 63
    15cc:	0f 92       	push	r0
    15ce:	11 24       	eor	r1, r1
    15d0:	8f 93       	push	r24
    15d2:	9f 93       	push	r25
  cli();
    15d4:	f8 94       	cli
    
  if(Pwm_flag == 1)
    15d6:	80 91 44 02 	lds	r24, 0x0244
    15da:	81 30       	cpi	r24, 0x01	; 1
    15dc:	39 f1       	breq	.+78     	; 0x162c <__vector_13+0x66>
    Pwm_inc();
    //Led_on(YELLOW_LED);
   //Led_off(RED_LED);          
  }
  else {
    if (Pwm_flag == 0)
    15de:	80 91 44 02 	lds	r24, 0x0244
    15e2:	88 23       	and	r24, r24
    15e4:	79 f4       	brne	.+30     	; 0x1604 <__vector_13+0x3e>
//****************************************
// Pwm_dec() 
//****************************************
void Pwm_dec(void)                         
{
  if(OCR1A != 0)
    15e6:	80 91 88 00 	lds	r24, 0x0088
    15ea:	90 91 89 00 	lds	r25, 0x0089
    15ee:	89 2b       	or	r24, r25
    15f0:	49 f0       	breq	.+18     	; 0x1604 <__vector_13+0x3e>
    OCR1A--;
    15f2:	80 91 88 00 	lds	r24, 0x0088
    15f6:	90 91 89 00 	lds	r25, 0x0089
    15fa:	01 97       	sbiw	r24, 0x01	; 1
    15fc:	90 93 89 00 	sts	0x0089, r25
    1600:	80 93 88 00 	sts	0x0088, r24
      //Led_off(YELLOW_LED);      
      //Led_off(RED_LED);          
    }
   }

  Pwm_flag = 2;
    1604:	82 e0       	ldi	r24, 0x02	; 2
    1606:	80 93 44 02 	sts	0x0244, r24
   
  SystemTimers.us_tick++;
    160a:	80 91 bf 01 	lds	r24, 0x01BF
    160e:	90 91 c0 01 	lds	r25, 0x01C0
    1612:	01 96       	adiw	r24, 0x01	; 1
    1614:	90 93 c0 01 	sts	0x01C0, r25
    1618:	80 93 bf 01 	sts	0x01BF, r24
   
  sei();
    161c:	78 94       	sei
}
    161e:	9f 91       	pop	r25
    1620:	8f 91       	pop	r24
    1622:	0f 90       	pop	r0
    1624:	0f be       	out	0x3f, r0	; 63
    1626:	0f 90       	pop	r0
    1628:	1f 90       	pop	r1
    162a:	18 95       	reti
//****************************************
// Pwm_inc() 
//****************************************
void Pwm_inc(void)                         
{
  OCR1A++;
    162c:	80 91 88 00 	lds	r24, 0x0088
    1630:	90 91 89 00 	lds	r25, 0x0089
    1634:	01 96       	adiw	r24, 0x01	; 1
    1636:	90 93 89 00 	sts	0x0089, r25
    163a:	80 93 88 00 	sts	0x0088, r24
  if(OCR1A == 0)
    163e:	80 91 88 00 	lds	r24, 0x0088
    1642:	90 91 89 00 	lds	r25, 0x0089
    1646:	89 2b       	or	r24, r25
    1648:	e9 f6       	brne	.-70     	; 0x1604 <__vector_13+0x3e>
  {
    OCR1A = 0xFF; // for 8 Bit
    164a:	8f ef       	ldi	r24, 0xFF	; 255
    164c:	90 e0       	ldi	r25, 0x00	; 0
    164e:	90 93 89 00 	sts	0x0089, r25
    1652:	80 93 88 00 	sts	0x0088, r24
    1656:	d6 cf       	rjmp	.-84     	; 0x1604 <__vector_13+0x3e>

00001658 <Display_PackTimes>:
// Read and Display the Pack Times
//**************************************************

void Display_PackTimes(void)
{
      lcdClear();      
    1658:	9b d8       	rcall	.-3786   	; 0x790 <lcdClear>
      Menu_Display_TimeDigits(6,0,PackInfo.Time.hours,PackInfo.Time.minutes);   
    165a:	86 e0       	ldi	r24, 0x06	; 6
    165c:	60 e0       	ldi	r22, 0x00	; 0
    165e:	40 91 68 02 	lds	r20, 0x0268
    1662:	20 91 67 02 	lds	r18, 0x0267
    1666:	b9 d5       	rcall	.+2930   	; 0x21da <__data_load_end+0x170>
      lcdprint(":");      
    1668:	86 e5       	ldi	r24, 0x56	; 86
    166a:	91 e0       	ldi	r25, 0x01	; 1
    166c:	8e d5       	rcall	.+2844   	; 0x218a <__data_load_end+0x120>
      lcdprint_dec_u08(PackInfo.Time.seconds,1);
    166e:	80 91 66 02 	lds	r24, 0x0266
    1672:	61 e0       	ldi	r22, 0x01	; 1
    1674:	54 d5       	rcall	.+2728   	; 0x211e <__data_load_end+0xb4>
	  
      Menu_Display_TimeDigits(1,1,PackInfo.StartTime.hours,PackInfo.StartTime.minutes);                
    1676:	81 e0       	ldi	r24, 0x01	; 1
    1678:	61 e0       	ldi	r22, 0x01	; 1
    167a:	40 91 72 02 	lds	r20, 0x0272
    167e:	20 91 71 02 	lds	r18, 0x0271
    1682:	ab d5       	rcall	.+2902   	; 0x21da <__data_load_end+0x170>
      lcdGotoXY(7,1);  
    1684:	87 e0       	ldi	r24, 0x07	; 7
    1686:	61 e0       	ldi	r22, 0x01	; 1
    1688:	68 d8       	rcall	.-3888   	; 0x75a <lcdGotoXY>
      lcdprint("->");
    168a:	88 e5       	ldi	r24, 0x58	; 88
    168c:	91 e0       	ldi	r25, 0x01	; 1
    168e:	7d d5       	rcall	.+2810   	; 0x218a <__data_load_end+0x120>
      Menu_Display_TimeDigits(10,1,PackInfo.StopTime.hours,PackInfo.StopTime.minutes);       
    1690:	8a e0       	ldi	r24, 0x0A	; 10
    1692:	61 e0       	ldi	r22, 0x01	; 1
    1694:	40 91 7c 02 	lds	r20, 0x027C
    1698:	20 91 7b 02 	lds	r18, 0x027B
    169c:	9e d5       	rcall	.+2876   	; 0x21da <__data_load_end+0x170>
}    
    169e:	08 95       	ret

000016a0 <Comms_Set_PackTime>:
  //**************************************************
  // u16 Comms_Set_PackTime(void)
  //  Set the Timeof the battery pack
  //**************************************************
  u08 Comms_Set_PackTime(void)
  {
    16a0:	cf 92       	push	r12
    16a2:	df 92       	push	r13
    16a4:	ef 92       	push	r14
    16a6:	ff 92       	push	r15
    16a8:	1f 93       	push	r17
    16aa:	df 93       	push	r29
    16ac:	cf 93       	push	r28
    16ae:	cd b7       	in	r28, 0x3d	; 61
    16b0:	de b7       	in	r29, 0x3e	; 62
    16b2:	2a 97       	sbiw	r28, 0x0a	; 10
    16b4:	0f b6       	in	r0, 0x3f	; 63
    16b6:	f8 94       	cli
    16b8:	de bf       	out	0x3e, r29	; 62
    16ba:	0f be       	out	0x3f, r0	; 63
    16bc:	cd bf       	out	0x3d, r28	; 61
    u08 masterdata[COMMS_DATA_BYTES];
    u08 slavedata[COMMS_DATA_BYTES];
      
    masterdata[0] = CMD_SET_TIME;   
    16be:	86 e5       	ldi	r24, 0x56	; 86
    16c0:	89 83       	std	Y+1, r24	; 0x01
    Time_readtime((u08*)&Time.hours,(u08*)&Time.minutes,(u08*)&Time.seconds);  
    16c2:	8e e3       	ldi	r24, 0x3E	; 62
    16c4:	92 e0       	ldi	r25, 0x02	; 2
    16c6:	6d e3       	ldi	r22, 0x3D	; 61
    16c8:	72 e0       	ldi	r23, 0x02	; 2
    16ca:	4c e3       	ldi	r20, 0x3C	; 60
    16cc:	52 e0       	ldi	r21, 0x02	; 2
    16ce:	29 dc       	rcall	.-1966   	; 0xf22 <Time_readtime>
    masterdata[1] = Time.hours;    
    16d0:	80 91 3e 02 	lds	r24, 0x023E
    16d4:	8a 83       	std	Y+2, r24	; 0x02
    masterdata[2] = Time.minutes;    
    16d6:	80 91 3d 02 	lds	r24, 0x023D
    16da:	8b 83       	std	Y+3, r24	; 0x03
    masterdata[3] = Time.seconds;    
    16dc:	80 91 3c 02 	lds	r24, 0x023C
    16e0:	8c 83       	std	Y+4, r24	; 0x04
    16e2:	13 e0       	ldi	r17, 0x03	; 3
    16e4:	66 e0       	ldi	r22, 0x06	; 6
    16e6:	c6 2e       	mov	r12, r22
    16e8:	d1 2c       	mov	r13, r1
    16ea:	cc 0e       	add	r12, r28
    16ec:	dd 1e       	adc	r13, r29
    16ee:	7e 01       	movw	r14, r28
    16f0:	08 94       	sec
    16f2:	e1 1c       	adc	r14, r1
    16f4:	f1 1c       	adc	r15, r1
    u08 timeset_correct_cnt =4;
    
    // Ensure the pack is set correctly    
    while(--timeset_correct_cnt > 0)    
    {
      if(Comms_Master_SendandReceive_CmdData(masterdata,slavedata,1) == 0)
    16f6:	c7 01       	movw	r24, r14
    16f8:	b6 01       	movw	r22, r12
    16fa:	41 e0       	ldi	r20, 0x01	; 1
    16fc:	1c de       	rcall	.-968    	; 0x1336 <Comms_Master_SendandReceive_CmdData>
    16fe:	88 23       	and	r24, r24
    1700:	19 f0       	breq	.+6      	; 0x1708 <Comms_Set_PackTime+0x68>
    masterdata[3] = Time.seconds;    
      
    u08 timeset_correct_cnt =4;
    
    // Ensure the pack is set correctly    
    while(--timeset_correct_cnt > 0)    
    1702:	11 50       	subi	r17, 0x01	; 1
    1704:	c1 f7       	brne	.-16     	; 0x16f6 <Comms_Set_PackTime+0x56>
    1706:	81 e0       	ldi	r24, 0x01	; 1
      }
    }
    
    return(1); // FAILED TO SET THE TIME CORRECTLY
    
  }
    1708:	2a 96       	adiw	r28, 0x0a	; 10
    170a:	0f b6       	in	r0, 0x3f	; 63
    170c:	f8 94       	cli
    170e:	de bf       	out	0x3e, r29	; 62
    1710:	0f be       	out	0x3f, r0	; 63
    1712:	cd bf       	out	0x3d, r28	; 61
    1714:	cf 91       	pop	r28
    1716:	df 91       	pop	r29
    1718:	1f 91       	pop	r17
    171a:	ff 90       	pop	r15
    171c:	ef 90       	pop	r14
    171e:	df 90       	pop	r13
    1720:	cf 90       	pop	r12
    1722:	08 95       	ret

00001724 <Comms_Get_PackTime>:
  //**************************************************
  // u16 Comms_Get_PackTime(void)
  //  Get the Temperature of the battery pack
  //**************************************************
  u08 Comms_Get_PackTime(void)
  {
    1724:	df 93       	push	r29
    1726:	cf 93       	push	r28
    1728:	cd b7       	in	r28, 0x3d	; 61
    172a:	de b7       	in	r29, 0x3e	; 62
    172c:	2a 97       	sbiw	r28, 0x0a	; 10
    172e:	0f b6       	in	r0, 0x3f	; 63
    1730:	f8 94       	cli
    1732:	de bf       	out	0x3e, r29	; 62
    1734:	0f be       	out	0x3f, r0	; 63
    1736:	cd bf       	out	0x3d, r28	; 61
    u08 masterdata[COMMS_DATA_BYTES];
    u08 slavedata[COMMS_DATA_BYTES];

	Time_readtime((u08*)&Time.hours,(u08*)&Time.minutes,(u08*)&Time.seconds);  
    1738:	6e e3       	ldi	r22, 0x3E	; 62
    173a:	72 e0       	ldi	r23, 0x02	; 2
    173c:	ab 01       	movw	r20, r22
    173e:	42 50       	subi	r20, 0x02	; 2
    1740:	50 40       	sbci	r21, 0x00	; 0
    1742:	cb 01       	movw	r24, r22
    1744:	61 50       	subi	r22, 0x01	; 1
    1746:	70 40       	sbci	r23, 0x00	; 0
    1748:	ec db       	rcall	.-2088   	; 0xf22 <Time_readtime>
    masterdata[0] = CMD_GET_TIME;    
    174a:	85 e5       	ldi	r24, 0x55	; 85
    174c:	89 83       	std	Y+1, r24	; 0x01
    Comms_Master_SendandReceive_CmdData(masterdata,slavedata,0);
    174e:	ce 01       	movw	r24, r28
    1750:	01 96       	adiw	r24, 0x01	; 1
    1752:	be 01       	movw	r22, r28
    1754:	6a 5f       	subi	r22, 0xFA	; 250
    1756:	7f 4f       	sbci	r23, 0xFF	; 255
    1758:	40 e0       	ldi	r20, 0x00	; 0
    175a:	ed dd       	rcall	.-1062   	; 0x1336 <Comms_Master_SendandReceive_CmdData>
    PackInfo.Time.hours = slavedata[1];
    175c:	8f 81       	ldd	r24, Y+7	; 0x07
    175e:	80 93 68 02 	sts	0x0268, r24
    PackInfo.Time.minutes = slavedata[2];
    1762:	88 85       	ldd	r24, Y+8	; 0x08
    1764:	80 93 67 02 	sts	0x0267, r24
    PackInfo.Time.seconds = slavedata[3];  
    1768:	89 85       	ldd	r24, Y+9	; 0x09
    176a:	80 93 66 02 	sts	0x0266, r24
    return(0);
  }
    176e:	80 e0       	ldi	r24, 0x00	; 0
    1770:	2a 96       	adiw	r28, 0x0a	; 10
    1772:	0f b6       	in	r0, 0x3f	; 63
    1774:	f8 94       	cli
    1776:	de bf       	out	0x3e, r29	; 62
    1778:	0f be       	out	0x3f, r0	; 63
    177a:	cd bf       	out	0x3d, r28	; 61
    177c:	cf 91       	pop	r28
    177e:	df 91       	pop	r29
    1780:	08 95       	ret

00001782 <Constant_Current>:

//***************************************************
// void Constant_Current(u16 current,u16 maxvoltage)
//***************************************************
u08 Constant_Current(u16 maxcurrent,u16 maxvoltage,u16 maxtime, u08 maxtemperature)
{
    1782:	2f 92       	push	r2
    1784:	3f 92       	push	r3
    1786:	4f 92       	push	r4
    1788:	5f 92       	push	r5
    178a:	6f 92       	push	r6
    178c:	7f 92       	push	r7
    178e:	8f 92       	push	r8
    1790:	9f 92       	push	r9
    1792:	af 92       	push	r10
    1794:	bf 92       	push	r11
    1796:	cf 92       	push	r12
    1798:	df 92       	push	r13
    179a:	ef 92       	push	r14
    179c:	ff 92       	push	r15
    179e:	0f 93       	push	r16
    17a0:	1f 93       	push	r17
    17a2:	df 93       	push	r29
    17a4:	cf 93       	push	r28
    17a6:	cd b7       	in	r28, 0x3d	; 61
    17a8:	de b7       	in	r29, 0x3e	; 62
    17aa:	28 97       	sbiw	r28, 0x08	; 8
    17ac:	0f b6       	in	r0, 0x3f	; 63
    17ae:	f8 94       	cli
    17b0:	de bf       	out	0x3e, r29	; 62
    17b2:	0f be       	out	0x3f, r0	; 63
    17b4:	cd bf       	out	0x3d, r28	; 61
    17b6:	3c 01       	movw	r6, r24
    17b8:	5b 01       	movw	r10, r22
    17ba:	5e 83       	std	Y+6, r21	; 0x06
    17bc:	4d 83       	std	Y+5, r20	; 0x05
    17be:	12 2f       	mov	r17, r18
  u16 current;
  u08 Consequetive_overtemp;
//  u08 key;
  
  LED_OFF_GREEN;
    17c0:	2e 98       	cbi	0x05, 6	; 5
  LED_ON_YELLOW;  
    17c2:	2f 9a       	sbi	0x05, 7	; 5
//****************************************
// Set_Pwm() 
//****************************************
void Set_Pwm(unsigned int data)                         
{
  OCR1A = data;
    17c4:	82 e0       	ldi	r24, 0x02	; 2
    17c6:	90 e0       	ldi	r25, 0x00	; 0
    17c8:	90 93 89 00 	sts	0x0089, r25
    17cc:	80 93 88 00 	sts	0x0088, r24
//****************************************
// Pwm_on() 
//****************************************
void Pwm_on(void)                         
{
  TCCR1B = (1<< CS10);         // 
    17d0:	81 e0       	ldi	r24, 0x01	; 1
    17d2:	80 93 81 00 	sts	0x0081, r24
  LED_OFF_GREEN;
  LED_ON_YELLOW;  

  Set_Pwm(2);
  Pwm_on();
  charging_info.pwmcount = MAXPWMCOUNT/2;
    17d6:	81 e0       	ldi	r24, 0x01	; 1
    17d8:	90 e0       	ldi	r25, 0x00	; 0
    17da:	90 93 47 02 	sts	0x0247, r25
    17de:	80 93 46 02 	sts	0x0246, r24
  
  u16 count = 0;
  u08 ChargeComplete = 0;
  PackInfo.MaxChargeTime  = maxtime;
    17e2:	50 93 97 02 	sts	0x0297, r21
    17e6:	40 93 96 02 	sts	0x0296, r20
  
  u08 hours,minutes,seconds,oldminutes;
  u08 prevseconds;
  Time_readtime(&PackInfo.ChargeStart.hours,&PackInfo.ChargeStart.minutes,&seconds);                              
    17ea:	86 e8       	ldi	r24, 0x86	; 134
    17ec:	92 e0       	ldi	r25, 0x02	; 2
    17ee:	65 e8       	ldi	r22, 0x85	; 133
    17f0:	72 e0       	ldi	r23, 0x02	; 2
    17f2:	ae 01       	movw	r20, r28
    17f4:	4d 5f       	subi	r20, 0xFD	; 253
    17f6:	5f 4f       	sbci	r21, 0xFF	; 255
    17f8:	94 db       	rcall	.-2264   	; 0xf22 <Time_readtime>
  PackInfo.ChargeTime_mins = 0;
    17fa:	10 92 99 02 	sts	0x0299, r1
    17fe:	10 92 98 02 	sts	0x0298, r1
  PackInfo.Previous_inc_current_mins = 0;
    1802:	10 92 9b 02 	sts	0x029B, r1
    1806:	10 92 9a 02 	sts	0x029A, r1
        //*******************************************************
        #define INCREASE_MINUTES 10
        if(PackInfo.ChargeTime_mins >= (PackInfo.Previous_inc_current_mins + INCREASE_MINUTES))
        {
          PackInfo.Previous_inc_current_mins = PackInfo.ChargeTime_mins;
          current = current + (maxcurrent/10);
    180a:	c3 01       	movw	r24, r6
    180c:	6a e0       	ldi	r22, 0x0A	; 10
    180e:	70 e0       	ldi	r23, 0x00	; 0
    1810:	7e d3       	rcall	.+1788   	; 0x1f0e <__udivmodhi4>
    1812:	4b 01       	movw	r8, r22
    1814:	63 01       	movw	r12, r6
    1816:	1c 82       	std	Y+4, r1	; 0x04
    1818:	ee 24       	eor	r14, r14
    181a:	ff 24       	eor	r15, r15
    181c:	04 e6       	ldi	r16, 0x64	; 100
    181e:	a0 ea       	ldi	r26, 0xA0	; 160
    1820:	4a 2e       	mov	r4, r26
    1822:	a2 e0       	ldi	r26, 0x02	; 2
    1824:	5a 2e       	mov	r5, r26
        
        
        // Check that we are not over temperature or Time NTC remember!
		#ifdef SLA_CHARGER		
		#else
        if(PackInfo.Temperature_deg >= maxtemperature)
    1826:	21 2f       	mov	r18, r17
    1828:	30 e0       	ldi	r19, 0x00	; 0
    182a:	38 87       	std	Y+8, r19	; 0x08
    182c:	2f 83       	std	Y+7, r18	; 0x07
      }           
      else     
      if((charging_info.pwmcount) <= 0)
      {
        Pwm_flag = 0;
        charging_info.pwmcount = MAXPWMCOUNT/2;      
    182e:	f1 e0       	ldi	r31, 0x01	; 1
    1830:	2f 2e       	mov	r2, r31
    1832:	31 2c       	mov	r3, r1
    1834:	29 c0       	rjmp	.+82     	; 0x1888 <Constant_Current+0x106>
        }
        */     
      }
	}

      if ((PackInfo.volta_mV > maxvoltage)||(PackInfo.currenta_mA > (current)))
    1836:	20 91 a4 02 	lds	r18, 0x02A4
    183a:	30 91 a5 02 	lds	r19, 0x02A5
    183e:	c2 16       	cp	r12, r18
    1840:	d3 06       	cpc	r13, r19
    1842:	08 f4       	brcc	.+2      	; 0x1846 <Constant_Current+0xc4>
    1844:	58 c0       	rjmp	.+176    	; 0x18f6 <Constant_Current+0x174>
      {
        charging_info.pwmcount--;     
      }
      else
      {
       if((PackInfo.volta_mV < maxvoltage)||(PackInfo.currenta_mA < (current)))
    1846:	8a 15       	cp	r24, r10
    1848:	9b 05       	cpc	r25, r11
    184a:	18 f0       	brcs	.+6      	; 0x1852 <Constant_Current+0xd0>
    184c:	2c 15       	cp	r18, r12
    184e:	3d 05       	cpc	r19, r13
    1850:	48 f4       	brcc	.+18     	; 0x1864 <Constant_Current+0xe2>
       {
          charging_info.pwmcount++;
    1852:	80 91 46 02 	lds	r24, 0x0246
    1856:	90 91 47 02 	lds	r25, 0x0247
    185a:	01 96       	adiw	r24, 0x01	; 1
    185c:	90 93 47 02 	sts	0x0247, r25
    1860:	80 93 46 02 	sts	0x0246, r24
            
      //************************************
      // Set the desired direction for the
      // PWM modulation
      //************************************
      if((charging_info.pwmcount) >= MAXPWMCOUNT)
    1864:	80 91 46 02 	lds	r24, 0x0246
    1868:	90 91 47 02 	lds	r25, 0x0247
    186c:	02 97       	sbiw	r24, 0x02	; 2
    186e:	0c f4       	brge	.+2      	; 0x1872 <Constant_Current+0xf0>
    1870:	52 c0       	rjmp	.+164    	; 0x1916 <Constant_Current+0x194>
      {
       charging_info.pwmcount = MAXPWMCOUNT/2;
    1872:	30 92 47 02 	sts	0x0247, r3
    1876:	20 92 46 02 	sts	0x0246, r2
       Pwm_flag = 1;
    187a:	81 e0       	ldi	r24, 0x01	; 1
    187c:	80 93 44 02 	sts	0x0244, r24
  PackInfo.Previous_inc_current_mins = 0;
  //current = 200; // Start at 200mA and start incrementing
  current = maxcurrent;
  Consequetive_overtemp  = 0;
  oldminutes = 100;
  while(!ChargeComplete)
    1880:	44 23       	and	r20, r20
    1882:	09 f0       	breq	.+2      	; 0x1886 <Constant_Current+0x104>
    1884:	56 c0       	rjmp	.+172    	; 0x1932 <Constant_Current+0x1b0>
    1886:	01 2f       	mov	r16, r17
	{	      
      wdt_reset();
    1888:	a8 95       	wdr
    
      PackInfo.volta = Measure(VOLTAGE);
    188a:	80 e0       	ldi	r24, 0x00	; 0
    188c:	1c dc       	rcall	.-1992   	; 0x10c6 <Measure>
    188e:	9c 01       	movw	r18, r24
    1890:	90 93 9f 02 	sts	0x029F, r25
    1894:	80 93 9e 02 	sts	0x029E, r24
      PackInfo.volta_mV = Calc_VBatt(PackInfo.volta);
    1898:	88 0f       	add	r24, r24
    189a:	99 1f       	adc	r25, r25
    189c:	82 0f       	add	r24, r18
    189e:	93 1f       	adc	r25, r19
    18a0:	9c 01       	movw	r18, r24
    18a2:	22 0f       	add	r18, r18
    18a4:	33 1f       	adc	r19, r19
    18a6:	22 0f       	add	r18, r18
    18a8:	33 1f       	adc	r19, r19
    18aa:	22 0f       	add	r18, r18
    18ac:	33 1f       	adc	r19, r19
    18ae:	82 0f       	add	r24, r18
    18b0:	93 1f       	adc	r25, r19
    18b2:	90 93 a3 02 	sts	0x02A3, r25
    18b6:	80 93 a2 02 	sts	0x02A2, r24
      PackInfo.currenta = Measure(CURRENT);
    18ba:	81 e0       	ldi	r24, 0x01	; 1
    18bc:	04 dc       	rcall	.-2040   	; 0x10c6 <Measure>
    18be:	80 93 a0 02 	sts	0x02A0, r24
    18c2:	f2 01       	movw	r30, r4
    18c4:	91 83       	std	Z+1, r25	; 0x01
      PackInfo.currenta_mA = Calc_IBatt(PackInfo.currenta);
    18c6:	36 dc       	rcall	.-1940   	; 0x1134 <Calc_IBatt>
    18c8:	90 93 a5 02 	sts	0x02A5, r25
    18cc:	80 93 a4 02 	sts	0x02A4, r24
      if((key==UP_KEY) || (key==DOWN_KEY))
        Menu_Show_Charging_VI(key);
      */
       
      
    if(++count > 5000)	
    18d0:	08 94       	sec
    18d2:	e1 1c       	adc	r14, r1
    18d4:	f1 1c       	adc	r15, r1
    18d6:	f9 e8       	ldi	r31, 0x89	; 137
    18d8:	ef 16       	cp	r14, r31
    18da:	f3 e1       	ldi	r31, 0x13	; 19
    18dc:	ff 06       	cpc	r15, r31
    18de:	08 f0       	brcs	.+2      	; 0x18e2 <Constant_Current+0x160>
    18e0:	42 c0       	rjmp	.+132    	; 0x1966 <Constant_Current+0x1e4>
    18e2:	10 2f       	mov	r17, r16
    18e4:	40 e0       	ldi	r20, 0x00	; 0
        }
        */     
      }
	}

      if ((PackInfo.volta_mV > maxvoltage)||(PackInfo.currenta_mA > (current)))
    18e6:	80 91 a2 02 	lds	r24, 0x02A2
    18ea:	90 91 a3 02 	lds	r25, 0x02A3
    18ee:	a8 16       	cp	r10, r24
    18f0:	b9 06       	cpc	r11, r25
    18f2:	08 f0       	brcs	.+2      	; 0x18f6 <Constant_Current+0x174>
    18f4:	a0 cf       	rjmp	.-192    	; 0x1836 <Constant_Current+0xb4>
      {
        charging_info.pwmcount--;     
    18f6:	80 91 46 02 	lds	r24, 0x0246
    18fa:	90 91 47 02 	lds	r25, 0x0247
    18fe:	01 97       	sbiw	r24, 0x01	; 1
    1900:	90 93 47 02 	sts	0x0247, r25
    1904:	80 93 46 02 	sts	0x0246, r24
            
      //************************************
      // Set the desired direction for the
      // PWM modulation
      //************************************
      if((charging_info.pwmcount) >= MAXPWMCOUNT)
    1908:	80 91 46 02 	lds	r24, 0x0246
    190c:	90 91 47 02 	lds	r25, 0x0247
    1910:	02 97       	sbiw	r24, 0x02	; 2
    1912:	0c f0       	brlt	.+2      	; 0x1916 <Constant_Current+0x194>
    1914:	ae cf       	rjmp	.-164    	; 0x1872 <Constant_Current+0xf0>
      {
       charging_info.pwmcount = MAXPWMCOUNT/2;
       Pwm_flag = 1;
      }           
      else     
      if((charging_info.pwmcount) <= 0)
    1916:	80 91 46 02 	lds	r24, 0x0246
    191a:	90 91 47 02 	lds	r25, 0x0247
    191e:	18 16       	cp	r1, r24
    1920:	19 06       	cpc	r1, r25
    1922:	0c f0       	brlt	.+2      	; 0x1926 <Constant_Current+0x1a4>
    1924:	98 c0       	rjmp	.+304    	; 0x1a56 <Constant_Current+0x2d4>
      {
        Pwm_flag = 0;
        charging_info.pwmcount = MAXPWMCOUNT/2;      
      }    
      else
        Pwm_flag = 2;
    1926:	72 e0       	ldi	r23, 0x02	; 2
    1928:	70 93 44 02 	sts	0x0244, r23
  PackInfo.Previous_inc_current_mins = 0;
  //current = 200; // Start at 200mA and start incrementing
  current = maxcurrent;
  Consequetive_overtemp  = 0;
  oldminutes = 100;
  while(!ChargeComplete)
    192c:	44 23       	and	r20, r20
    192e:	09 f4       	brne	.+2      	; 0x1932 <Constant_Current+0x1b0>
    1930:	aa cf       	rjmp	.-172    	; 0x1886 <Constant_Current+0x104>
      else
        Pwm_flag = 2;
    } 
    
  return(ChargeComplete); // Return the Code
}
    1932:	84 2f       	mov	r24, r20
    1934:	28 96       	adiw	r28, 0x08	; 8
    1936:	0f b6       	in	r0, 0x3f	; 63
    1938:	f8 94       	cli
    193a:	de bf       	out	0x3e, r29	; 62
    193c:	0f be       	out	0x3f, r0	; 63
    193e:	cd bf       	out	0x3d, r28	; 61
    1940:	cf 91       	pop	r28
    1942:	df 91       	pop	r29
    1944:	1f 91       	pop	r17
    1946:	0f 91       	pop	r16
    1948:	ff 90       	pop	r15
    194a:	ef 90       	pop	r14
    194c:	df 90       	pop	r13
    194e:	cf 90       	pop	r12
    1950:	bf 90       	pop	r11
    1952:	af 90       	pop	r10
    1954:	9f 90       	pop	r9
    1956:	8f 90       	pop	r8
    1958:	7f 90       	pop	r7
    195a:	6f 90       	pop	r6
    195c:	5f 90       	pop	r5
    195e:	4f 90       	pop	r4
    1960:	3f 90       	pop	r3
    1962:	2f 90       	pop	r2
    1964:	08 95       	ret
      */
       
      
    if(++count > 5000)	
	{
	  Menu_Show_Charging_VI(0);
    1966:	80 e0       	ldi	r24, 0x00	; 0
    1968:	49 d4       	rcall	.+2194   	; 0x21fc <__data_load_end+0x192>
      count = 0;    	
      Time_readtime(&hours,&minutes,&seconds); 
    196a:	ce 01       	movw	r24, r28
    196c:	01 96       	adiw	r24, 0x01	; 1
    196e:	be 01       	movw	r22, r28
    1970:	6e 5f       	subi	r22, 0xFE	; 254
    1972:	7f 4f       	sbci	r23, 0xFF	; 255
    1974:	ae 01       	movw	r20, r28
    1976:	4d 5f       	subi	r20, 0xFD	; 253
    1978:	5f 4f       	sbci	r21, 0xFF	; 255
    197a:	d3 da       	rcall	.-2650   	; 0xf22 <Time_readtime>
			seconds = prevseconds;
			MasterCharger_SendTime();						
		   }
	  #endif
	  // Only once a minute
      if(minutes != oldminutes)
    197c:	1a 81       	ldd	r17, Y+2	; 0x02
    197e:	10 17       	cp	r17, r16
    1980:	21 f4       	brne	.+8      	; 0x198a <Constant_Current+0x208>
    1982:	ee 24       	eor	r14, r14
    1984:	ff 24       	eor	r15, r15
    1986:	40 e0       	ldi	r20, 0x00	; 0
    1988:	ae cf       	rjmp	.-164    	; 0x18e6 <Constant_Current+0x164>
      {
		oldminutes = minutes;
        Comms_Get_PackTemperature();
    198a:	5c dd       	rcall	.-1352   	; 0x1444 <Comms_Get_PackTemperature>
		// Assume a wrap around at 12 midnight
		if(PackInfo.ChargeStart.hours > hours)
    198c:	40 91 86 02 	lds	r20, 0x0286
    1990:	29 81       	ldd	r18, Y+1	; 0x01
    1992:	24 17       	cp	r18, r20
    1994:	08 f0       	brcs	.+2      	; 0x1998 <Constant_Current+0x216>
    1996:	70 c0       	rjmp	.+224    	; 0x1a78 <Constant_Current+0x2f6>
			PackInfo.ChargeTime_mins = (hours*60 + minutes) + (((23 - PackInfo.ChargeStart.hours)*60) + (60 - PackInfo.ChargeStart.minutes));		
    1998:	8a 81       	ldd	r24, Y+2	; 0x02
    199a:	90 e0       	ldi	r25, 0x00	; 0
    199c:	cc 96       	adiw	r24, 0x3c	; 60
    199e:	5c e3       	ldi	r21, 0x3C	; 60
    19a0:	25 9f       	mul	r18, r21
    19a2:	90 01       	movw	r18, r0
    19a4:	11 24       	eor	r1, r1
    19a6:	82 0f       	add	r24, r18
    19a8:	93 1f       	adc	r25, r19
    19aa:	20 91 85 02 	lds	r18, 0x0285
    19ae:	82 1b       	sub	r24, r18
    19b0:	91 09       	sbc	r25, r1
    19b2:	67 e1       	ldi	r22, 0x17	; 23
    19b4:	70 e0       	ldi	r23, 0x00	; 0
    19b6:	64 1b       	sub	r22, r20
    19b8:	71 09       	sbc	r23, r1
    19ba:	2c e3       	ldi	r18, 0x3C	; 60
    19bc:	30 e0       	ldi	r19, 0x00	; 0
    19be:	f9 01       	movw	r30, r18
    19c0:	6e 9f       	mul	r22, r30
    19c2:	90 01       	movw	r18, r0
    19c4:	6f 9f       	mul	r22, r31
    19c6:	30 0d       	add	r19, r0
    19c8:	7e 9f       	mul	r23, r30
    19ca:	30 0d       	add	r19, r0
    19cc:	11 24       	eor	r1, r1
    19ce:	82 0f       	add	r24, r18
    19d0:	93 1f       	adc	r25, r19
    19d2:	90 93 99 02 	sts	0x0299, r25
    19d6:	80 93 98 02 	sts	0x0298, r24
		else		
			PackInfo.ChargeTime_mins = (hours*60 + minutes) - ((PackInfo.ChargeStart.hours*60) + (PackInfo.ChargeStart.minutes));
		
        PackInfo.ChargeTime.hours = PackInfo.ChargeTime_mins/60;  
    19da:	20 91 98 02 	lds	r18, 0x0298
    19de:	30 91 99 02 	lds	r19, 0x0299
    19e2:	c9 01       	movw	r24, r18
    19e4:	6c e3       	ldi	r22, 0x3C	; 60
    19e6:	70 e0       	ldi	r23, 0x00	; 0
    19e8:	92 d2       	rcall	.+1316   	; 0x1f0e <__udivmodhi4>
    19ea:	60 93 90 02 	sts	0x0290, r22
        PackInfo.ChargeTime.minutes = PackInfo.ChargeTime_mins - (PackInfo.ChargeTime.hours*60);        
    19ee:	74 ec       	ldi	r23, 0xC4	; 196
    19f0:	67 9f       	mul	r22, r23
    19f2:	60 2d       	mov	r22, r0
    19f4:	11 24       	eor	r1, r1
    19f6:	62 0f       	add	r22, r18
    19f8:	60 93 8f 02 	sts	0x028F, r22
        
        //*******************************************************
        // EVERY N Minutes increase the current by MaxCurrent/10        
        //*******************************************************
        #define INCREASE_MINUTES 10
        if(PackInfo.ChargeTime_mins >= (PackInfo.Previous_inc_current_mins + INCREASE_MINUTES))
    19fc:	80 91 9a 02 	lds	r24, 0x029A
    1a00:	90 91 9b 02 	lds	r25, 0x029B
    1a04:	0a 96       	adiw	r24, 0x0a	; 10
    1a06:	28 17       	cp	r18, r24
    1a08:	39 07       	cpc	r19, r25
    1a0a:	50 f0       	brcs	.+20     	; 0x1a20 <Constant_Current+0x29e>
        {
          PackInfo.Previous_inc_current_mins = PackInfo.ChargeTime_mins;
    1a0c:	30 93 9b 02 	sts	0x029B, r19
    1a10:	20 93 9a 02 	sts	0x029A, r18
          current = current + (maxcurrent/10);
    1a14:	c8 0c       	add	r12, r8
    1a16:	d9 1c       	adc	r13, r9
          if(current > maxcurrent)
    1a18:	6c 14       	cp	r6, r12
    1a1a:	7d 04       	cpc	r7, r13
    1a1c:	08 f4       	brcc	.+2      	; 0x1a20 <Constant_Current+0x29e>
    1a1e:	4c c0       	rjmp	.+152    	; 0x1ab8 <Constant_Current+0x336>
        
        
        // Check that we are not over temperature or Time NTC remember!
		#ifdef SLA_CHARGER		
		#else
        if(PackInfo.Temperature_deg >= maxtemperature)
    1a20:	80 91 60 02 	lds	r24, 0x0260
    1a24:	90 91 61 02 	lds	r25, 0x0261
    1a28:	ef 81       	ldd	r30, Y+7	; 0x07
    1a2a:	f8 85       	ldd	r31, Y+8	; 0x08
    1a2c:	8e 17       	cp	r24, r30
    1a2e:	9f 07       	cpc	r25, r31
    1a30:	e0 f4       	brcc	.+56     	; 0x1a6a <Constant_Current+0x2e8>
    1a32:	1c 82       	std	Y+4, r1	; 0x04
    1a34:	40 e0       	ldi	r20, 0x00	; 0
        }
        else
          Consequetive_overtemp = 0;
		#endif
          
        if(PackInfo.ChargeTime_mins > maxtime)
    1a36:	6d 81       	ldd	r22, Y+5	; 0x05
    1a38:	7e 81       	ldd	r23, Y+6	; 0x06
    1a3a:	62 17       	cp	r22, r18
    1a3c:	73 07       	cpc	r23, r19
    1a3e:	08 f4       	brcc	.+2      	; 0x1a42 <Constant_Current+0x2c0>
    1a40:	41 e4       	ldi	r20, 0x41	; 65
        {        
          ChargeComplete = CHARGECOMPLETE_TIME;          
        }   
        if(PackInfo.currenta_mA < 50)
    1a42:	80 91 a4 02 	lds	r24, 0x02A4
    1a46:	90 91 a5 02 	lds	r25, 0x02A5
    1a4a:	c2 97       	sbiw	r24, 0x32	; 50
    1a4c:	58 f4       	brcc	.+22     	; 0x1a64 <Constant_Current+0x2e2>
    1a4e:	ee 24       	eor	r14, r14
    1a50:	ff 24       	eor	r15, r15
    1a52:	42 e4       	ldi	r20, 0x42	; 66
    1a54:	48 cf       	rjmp	.-368    	; 0x18e6 <Constant_Current+0x164>
       Pwm_flag = 1;
      }           
      else     
      if((charging_info.pwmcount) <= 0)
      {
        Pwm_flag = 0;
    1a56:	10 92 44 02 	sts	0x0244, r1
        charging_info.pwmcount = MAXPWMCOUNT/2;      
    1a5a:	30 92 47 02 	sts	0x0247, r3
    1a5e:	20 92 46 02 	sts	0x0246, r2
    1a62:	0e cf       	rjmp	.-484    	; 0x1880 <Constant_Current+0xfe>
          
        if(PackInfo.ChargeTime_mins > maxtime)
        {        
          ChargeComplete = CHARGECOMPLETE_TIME;          
        }   
        if(PackInfo.currenta_mA < 50)
    1a64:	ee 24       	eor	r14, r14
    1a66:	ff 24       	eor	r15, r15
    1a68:	3e cf       	rjmp	.-388    	; 0x18e6 <Constant_Current+0x164>
		#ifdef SLA_CHARGER		
		#else
        if(PackInfo.Temperature_deg >= maxtemperature)
        {
          #define NUM_CONSEQUETIVE_OVERTEMP 5
          if(++Consequetive_overtemp > NUM_CONSEQUETIVE_OVERTEMP)
    1a6a:	fc 81       	ldd	r31, Y+4	; 0x04
    1a6c:	ff 5f       	subi	r31, 0xFF	; 255
    1a6e:	fc 83       	std	Y+4, r31	; 0x04
    1a70:	f6 30       	cpi	r31, 0x06	; 6
    1a72:	00 f1       	brcs	.+64     	; 0x1ab4 <Constant_Current+0x332>
    1a74:	40 e4       	ldi	r20, 0x40	; 64
    1a76:	df cf       	rjmp	.-66     	; 0x1a36 <Constant_Current+0x2b4>
        Comms_Get_PackTemperature();
		// Assume a wrap around at 12 midnight
		if(PackInfo.ChargeStart.hours > hours)
			PackInfo.ChargeTime_mins = (hours*60 + minutes) + (((23 - PackInfo.ChargeStart.hours)*60) + (60 - PackInfo.ChargeStart.minutes));		
		else		
			PackInfo.ChargeTime_mins = (hours*60 + minutes) - ((PackInfo.ChargeStart.hours*60) + (PackInfo.ChargeStart.minutes));
    1a78:	fc e3       	ldi	r31, 0x3C	; 60
    1a7a:	2f 9f       	mul	r18, r31
    1a7c:	c0 01       	movw	r24, r0
    1a7e:	11 24       	eor	r1, r1
    1a80:	24 2f       	mov	r18, r20
    1a82:	30 e0       	ldi	r19, 0x00	; 0
    1a84:	a9 01       	movw	r20, r18
    1a86:	64 ec       	ldi	r22, 0xC4	; 196
    1a88:	7f ef       	ldi	r23, 0xFF	; 255
    1a8a:	46 9f       	mul	r20, r22
    1a8c:	90 01       	movw	r18, r0
    1a8e:	47 9f       	mul	r20, r23
    1a90:	30 0d       	add	r19, r0
    1a92:	56 9f       	mul	r21, r22
    1a94:	30 0d       	add	r19, r0
    1a96:	11 24       	eor	r1, r1
    1a98:	82 0f       	add	r24, r18
    1a9a:	93 1f       	adc	r25, r19
    1a9c:	2a 81       	ldd	r18, Y+2	; 0x02
    1a9e:	82 0f       	add	r24, r18
    1aa0:	91 1d       	adc	r25, r1
    1aa2:	20 91 85 02 	lds	r18, 0x0285
    1aa6:	82 1b       	sub	r24, r18
    1aa8:	91 09       	sbc	r25, r1
    1aaa:	90 93 99 02 	sts	0x0299, r25
    1aae:	80 93 98 02 	sts	0x0298, r24
    1ab2:	93 cf       	rjmp	.-218    	; 0x19da <Constant_Current+0x258>
		#ifdef SLA_CHARGER		
		#else
        if(PackInfo.Temperature_deg >= maxtemperature)
        {
          #define NUM_CONSEQUETIVE_OVERTEMP 5
          if(++Consequetive_overtemp > NUM_CONSEQUETIVE_OVERTEMP)
    1ab4:	40 e0       	ldi	r20, 0x00	; 0
    1ab6:	bf cf       	rjmp	.-130    	; 0x1a36 <Constant_Current+0x2b4>
        #define INCREASE_MINUTES 10
        if(PackInfo.ChargeTime_mins >= (PackInfo.Previous_inc_current_mins + INCREASE_MINUTES))
        {
          PackInfo.Previous_inc_current_mins = PackInfo.ChargeTime_mins;
          current = current + (maxcurrent/10);
          if(current > maxcurrent)
    1ab8:	63 01       	movw	r12, r6
    1aba:	b2 cf       	rjmp	.-156    	; 0x1a20 <Constant_Current+0x29e>

00001abc <SlaveCharger_UpdateTime>:
	// Using the message sent from the Master CHarger, 
	// update the RTC.
    //lcdprintat(0,0,"*****************");         
	
	u08 hours,minutes,seconds;
	hours = RxSerial.Message[0];
    1abc:	80 91 dd 01 	lds	r24, 0x01DD
	minutes = RxSerial.Message[1];
    1ac0:	60 91 de 01 	lds	r22, 0x01DE
	seconds = RxSerial.Message[2];
    1ac4:	40 91 df 01 	lds	r20, 0x01DF
		
	Time_settime(hours,minutes,seconds);
    1ac8:	df d9       	rcall	.-3138   	; 0xe88 <Time_settime>
	#ifdef SLAVE_COMMS	
	if(google)
    1aca:	80 91 45 02 	lds	r24, 0x0245
    1ace:	88 23       	and	r24, r24
    1ad0:	21 f4       	brne	.+8      	; 0x1ada <SlaveCharger_UpdateTime+0x1e>
		google = 0;
		//lcdprintat(0,0,"$");         	
	}
	else
	{
		google = 1;
    1ad2:	81 e0       	ldi	r24, 0x01	; 1
    1ad4:	80 93 45 02 	sts	0x0245, r24
    1ad8:	08 95       	ret
		
	Time_settime(hours,minutes,seconds);
	#ifdef SLAVE_COMMS	
	if(google)
	{
		google = 0;
    1ada:	10 92 45 02 	sts	0x0245, r1
    1ade:	08 95       	ret

00001ae0 <MasterCharger_SendTime>:
//**************************************************
// Sends the Time to the Slave units.
//**************************************************  
void MasterCharger_SendTime(void)
{
	Time_readtime((u08*)&Menu.hours,(u08*)&Menu.minutes,(u08*)&Menu.seconds);                              
    1ae0:	6d ec       	ldi	r22, 0xCD	; 205
    1ae2:	71 e0       	ldi	r23, 0x01	; 1
    1ae4:	ab 01       	movw	r20, r22
    1ae6:	4e 5f       	subi	r20, 0xFE	; 254
    1ae8:	5f 4f       	sbci	r21, 0xFF	; 255
    1aea:	cb 01       	movw	r24, r22
    1aec:	6f 5f       	subi	r22, 0xFF	; 255
    1aee:	7f 4f       	sbci	r23, 0xFF	; 255
    1af0:	18 da       	rcall	.-3024   	; 0xf22 <Time_readtime>
	rprintfChar(Menu.hours);
    1af2:	80 91 cd 01 	lds	r24, 0x01CD
    1af6:	04 d8       	rcall	.-4088   	; 0xb00 <rprintfChar>
	rprintfChar(Menu.minutes);
    1af8:	80 91 ce 01 	lds	r24, 0x01CE
    1afc:	01 d8       	rcall	.-4094   	; 0xb00 <rprintfChar>
	rprintfChar(Menu.seconds);	
    1afe:	80 91 cf 01 	lds	r24, 0x01CF
    1b02:	fe d7       	rcall	.+4092   	; 0x2b00 <__data_load_end+0xa96>
	rprintfChar(' ');
    1b04:	80 e2       	ldi	r24, 0x20	; 32
    1b06:	fc d7       	rcall	.+4088   	; 0x2b00 <__data_load_end+0xa96>
	rprintfChar(100);	
    1b08:	84 e6       	ldi	r24, 0x64	; 100
    1b0a:	fa d7       	rcall	.+4084   	; 0x2b00 <__data_load_end+0xa96>
}  
    1b0c:	08 95       	ret

00001b0e <Comms_Set_PackStartStopTime>:
  //**************************************************
  // u16 Comms_Set_PackStartTime(void)
  //  Set the Start Time of the Pack
  //**************************************************
  u08 Comms_Set_PackStartStopTime(void)
  {
    1b0e:	cf 92       	push	r12
    1b10:	df 92       	push	r13
    1b12:	ef 92       	push	r14
    1b14:	ff 92       	push	r15
    1b16:	1f 93       	push	r17
    1b18:	df 93       	push	r29
    1b1a:	cf 93       	push	r28
    1b1c:	cd b7       	in	r28, 0x3d	; 61
    1b1e:	de b7       	in	r29, 0x3e	; 62
    1b20:	2a 97       	sbiw	r28, 0x0a	; 10
    1b22:	0f b6       	in	r0, 0x3f	; 63
    1b24:	f8 94       	cli
    1b26:	de bf       	out	0x3e, r29	; 62
    1b28:	0f be       	out	0x3f, r0	; 63
    1b2a:	cd bf       	out	0x3d, r28	; 61
    u08 masterdata[COMMS_DATA_BYTES];
    u08 slavedata[COMMS_DATA_BYTES];

    masterdata[0] = CMD_SET_STARTSTOPTIME;   
    1b2c:	84 e2       	ldi	r24, 0x24	; 36
    1b2e:	89 83       	std	Y+1, r24	; 0x01
    masterdata[1] = EEPROM_INT_read(STARTTIME_HOUR_ADDR);    
    1b30:	81 e0       	ldi	r24, 0x01	; 1
    1b32:	90 e0       	ldi	r25, 0x00	; 0
    1b34:	df d2       	rcall	.+1470   	; 0x20f4 <__data_load_end+0x8a>
    1b36:	8a 83       	std	Y+2, r24	; 0x02
    masterdata[2] = EEPROM_INT_read(STARTTIME_HOUR_ADDR+1);    
    1b38:	82 e0       	ldi	r24, 0x02	; 2
    1b3a:	90 e0       	ldi	r25, 0x00	; 0
    1b3c:	db d2       	rcall	.+1462   	; 0x20f4 <__data_load_end+0x8a>
    1b3e:	8b 83       	std	Y+3, r24	; 0x03
    masterdata[3] = EEPROM_INT_read(STOPTIME_HOUR_ADDR);    
    1b40:	83 e0       	ldi	r24, 0x03	; 3
    1b42:	90 e0       	ldi	r25, 0x00	; 0
    1b44:	d7 d2       	rcall	.+1454   	; 0x20f4 <__data_load_end+0x8a>
    1b46:	8c 83       	std	Y+4, r24	; 0x04
    masterdata[4] = EEPROM_INT_read(STOPTIME_HOUR_ADDR+1);  
    1b48:	84 e0       	ldi	r24, 0x04	; 4
    1b4a:	90 e0       	ldi	r25, 0x00	; 0
    1b4c:	d3 d2       	rcall	.+1446   	; 0x20f4 <__data_load_end+0x8a>
    1b4e:	8d 83       	std	Y+5, r24	; 0x05
    1b50:	13 e0       	ldi	r17, 0x03	; 3
    1b52:	b6 e0       	ldi	r27, 0x06	; 6
    1b54:	cb 2e       	mov	r12, r27
    1b56:	d1 2c       	mov	r13, r1
    1b58:	cc 0e       	add	r12, r28
    1b5a:	dd 1e       	adc	r13, r29
    1b5c:	7e 01       	movw	r14, r28
    1b5e:	08 94       	sec
    1b60:	e1 1c       	adc	r14, r1
    1b62:	f1 1c       	adc	r15, r1
    
    u08 timeset_correct_cnt =4;    
    while((--timeset_correct_cnt > 0))
    {
      if(Comms_Master_SendandReceive_CmdData(masterdata,slavedata,1) == 0)
    1b64:	c7 01       	movw	r24, r14
    1b66:	b6 01       	movw	r22, r12
    1b68:	41 e0       	ldi	r20, 0x01	; 1
    1b6a:	e5 db       	rcall	.-2102   	; 0x1336 <Comms_Master_SendandReceive_CmdData>
    1b6c:	88 23       	and	r24, r24
    1b6e:	19 f0       	breq	.+6      	; 0x1b76 <Comms_Set_PackStartStopTime+0x68>
    masterdata[2] = EEPROM_INT_read(STARTTIME_HOUR_ADDR+1);    
    masterdata[3] = EEPROM_INT_read(STOPTIME_HOUR_ADDR);    
    masterdata[4] = EEPROM_INT_read(STOPTIME_HOUR_ADDR+1);  
    
    u08 timeset_correct_cnt =4;    
    while((--timeset_correct_cnt > 0))
    1b70:	11 50       	subi	r17, 0x01	; 1
    1b72:	c1 f7       	brne	.-16     	; 0x1b64 <Comms_Set_PackStartStopTime+0x56>
    1b74:	81 e0       	ldi	r24, 0x01	; 1
      if(Comms_Master_SendandReceive_CmdData(masterdata,slavedata,1) == 0)
          return(0);
    }    
        
    return(1);
  }
    1b76:	2a 96       	adiw	r28, 0x0a	; 10
    1b78:	0f b6       	in	r0, 0x3f	; 63
    1b7a:	f8 94       	cli
    1b7c:	de bf       	out	0x3e, r29	; 62
    1b7e:	0f be       	out	0x3f, r0	; 63
    1b80:	cd bf       	out	0x3d, r28	; 61
    1b82:	cf 91       	pop	r28
    1b84:	df 91       	pop	r29
    1b86:	1f 91       	pop	r17
    1b88:	ff 90       	pop	r15
    1b8a:	ef 90       	pop	r14
    1b8c:	df 90       	pop	r13
    1b8e:	cf 90       	pop	r12
    1b90:	08 95       	ret

00001b92 <Comms_Get_PackInfo>:
  //**************************************************
  // 
  // 
  //**************************************************
  u08 Comms_Get_PackInfo(void)
  {
    1b92:	1f 93       	push	r17
    1b94:	df 93       	push	r29
    1b96:	cf 93       	push	r28
    1b98:	cd b7       	in	r28, 0x3d	; 61
    1b9a:	de b7       	in	r29, 0x3e	; 62
    1b9c:	2a 97       	sbiw	r28, 0x0a	; 10
    1b9e:	0f b6       	in	r0, 0x3f	; 63
    1ba0:	f8 94       	cli
    1ba2:	de bf       	out	0x3e, r29	; 62
    1ba4:	0f be       	out	0x3f, r0	; 63
    1ba6:	cd bf       	out	0x3d, r28	; 61
    //u08 Comms_Failure;
    u08 masterdata[COMMS_DATA_BYTES];
    u08 slavedata[COMMS_DATA_BYTES];  
	
  
    masterdata[0] = CMD_GET_PACKINFO;
    1ba8:	80 e5       	ldi	r24, 0x50	; 80
    1baa:	89 83       	std	Y+1, r24	; 0x01
    Comms_Master_SendandReceive_CmdData(masterdata,slavedata,0);
    1bac:	ce 01       	movw	r24, r28
    1bae:	01 96       	adiw	r24, 0x01	; 1
    1bb0:	be 01       	movw	r22, r28
    1bb2:	6a 5f       	subi	r22, 0xFA	; 250
    1bb4:	7f 4f       	sbci	r23, 0xFF	; 255
    1bb6:	40 e0       	ldi	r20, 0x00	; 0
    1bb8:	be db       	rcall	.-2180   	; 0x1336 <Comms_Master_SendandReceive_CmdData>
    PackInfo.PackType = slavedata[1];
    1bba:	8f 81       	ldd	r24, Y+7	; 0x07
    1bbc:	80 93 59 02 	sts	0x0259, r24
    PackInfo.SerialNo = (slavedata[2]<<8) + slavedata[3];
    1bc0:	98 85       	ldd	r25, Y+8	; 0x08
    1bc2:	80 e0       	ldi	r24, 0x00	; 0
    1bc4:	29 85       	ldd	r18, Y+9	; 0x09
    1bc6:	82 0f       	add	r24, r18
    1bc8:	91 1d       	adc	r25, r1
    1bca:	90 93 5b 02 	sts	0x025B, r25
    1bce:	80 93 5a 02 	sts	0x025A, r24
    masterdata[0] = CMD_GET_RECHARGENO;    
    Comms_Master_SendandReceive_CmdData(masterdata,slavedata,0);
    PackInfo.RechargeNo = (slavedata[1]<<8) + slavedata[2];   
*/    
    
    Comms_Get_RechargeCount();
    1bd2:	b6 dc       	rcall	.-1684   	; 0x1540 <Comms_Get_RechargeCount>
    Comms_Set_PackTime();      	
    1bd4:	65 dd       	rcall	.-1334   	; 0x16a0 <Comms_Set_PackTime>
    Comms_Get_PackTime();      
    1bd6:	a6 dd       	rcall	.-1204   	; 0x1724 <Comms_Get_PackTime>
    Comms_Get_PackStartStopTime();      	
    1bd8:	8a dc       	rcall	.-1772   	; 0x14ee <Comms_Get_PackStartStopTime>
    Display_PackTimes();  
    1bda:	3e dd       	rcall	.-1412   	; 0x1658 <Display_PackTimes>
    1bdc:	10 e0       	ldi	r17, 0x00	; 0
	u08 cnt = 0;
	// Check that the times are correct.
	while(((PackInfo.StartTime.hours != 9) ||(PackInfo.StartTime.minutes != 0)
    1bde:	80 91 72 02 	lds	r24, 0x0272
    1be2:	89 30       	cpi	r24, 0x09	; 9
    1be4:	59 f0       	breq	.+22     	; 0x1bfc <Comms_Get_PackInfo+0x6a>
    1be6:	1f 5f       	subi	r17, 0xFF	; 255
    1be8:	13 30       	cpi	r17, 0x03	; 3
    1bea:	01 f1       	breq	.+64     	; 0x1c2c <Comms_Get_PackInfo+0x9a>
		lcdprint("Pack Time");  	
		lcdGotoXY(3,1);  
		lcdprint("Incorrect");		
		while(Kbd_Scan() == NO_KEY);
		*/
		Comms_Set_PackStartStopTime();	
    1bec:	90 df       	rcall	.-224    	; 0x1b0e <Comms_Set_PackStartStopTime>
		Comms_Get_PackStartStopTime();  
    1bee:	7f dc       	rcall	.-1794   	; 0x14ee <Comms_Get_PackStartStopTime>
		Comms_Set_PackTime();   
    1bf0:	57 dd       	rcall	.-1362   	; 0x16a0 <Comms_Set_PackTime>
  	    Comms_Get_PackTime();      
    1bf2:	98 dd       	rcall	.-1232   	; 0x1724 <Comms_Get_PackTime>
    Comms_Get_PackTime();      
    Comms_Get_PackStartStopTime();      	
    Display_PackTimes();  
	u08 cnt = 0;
	// Check that the times are correct.
	while(((PackInfo.StartTime.hours != 9) ||(PackInfo.StartTime.minutes != 0)
    1bf4:	80 91 72 02 	lds	r24, 0x0272
    1bf8:	89 30       	cpi	r24, 0x09	; 9
    1bfa:	a9 f7       	brne	.-22     	; 0x1be6 <Comms_Get_PackInfo+0x54>
    1bfc:	80 91 71 02 	lds	r24, 0x0271
    1c00:	88 23       	and	r24, r24
    1c02:	89 f7       	brne	.-30     	; 0x1be6 <Comms_Get_PackInfo+0x54>
    1c04:	80 91 7c 02 	lds	r24, 0x027C
    1c08:	82 31       	cpi	r24, 0x12	; 18
    1c0a:	69 f7       	brne	.-38     	; 0x1be6 <Comms_Get_PackInfo+0x54>
    1c0c:	80 91 7b 02 	lds	r24, 0x027B
    1c10:	88 23       	and	r24, r24
    1c12:	49 f7       	brne	.-46     	; 0x1be6 <Comms_Get_PackInfo+0x54>
    1c14:	90 91 68 02 	lds	r25, 0x0268
    1c18:	80 91 3e 02 	lds	r24, 0x023E
    1c1c:	98 17       	cp	r25, r24
    1c1e:	19 f7       	brne	.-58     	; 0x1be6 <Comms_Get_PackInfo+0x54>
    1c20:	90 91 67 02 	lds	r25, 0x0267
    1c24:	80 91 3d 02 	lds	r24, 0x023D
    1c28:	98 17       	cp	r25, r24
    1c2a:	e9 f6       	brne	.-70     	; 0x1be6 <Comms_Get_PackInfo+0x54>
    Comms_Get_PackStartStopTime();      
    //Display_PackTimes();    
*/	
       
    return(0);
  }
    1c2c:	80 e0       	ldi	r24, 0x00	; 0
    1c2e:	2a 96       	adiw	r28, 0x0a	; 10
    1c30:	0f b6       	in	r0, 0x3f	; 63
    1c32:	f8 94       	cli
    1c34:	de bf       	out	0x3e, r29	; 62
    1c36:	0f be       	out	0x3f, r0	; 63
    1c38:	cd bf       	out	0x3d, r28	; 61
    1c3a:	cf 91       	pop	r28
    1c3c:	df 91       	pop	r29
    1c3e:	1f 91       	pop	r17
    1c40:	08 95       	ret

00001c42 <Init_Settings>:
//**************************************************

void Init_Settings(void)
{
  
  u08 virgin = EEPROM_INT_read(VIRGIN_ADDR);
    1c42:	80 e0       	ldi	r24, 0x00	; 0
    1c44:	90 e0       	ldi	r25, 0x00	; 0
    1c46:	56 d2       	rcall	.+1196   	; 0x20f4 <__data_load_end+0x8a>
  //if(virgin !=0x42)
  {
    EEPROM_INT_write(VIRGIN_ADDR,0x42);
    1c48:	80 e0       	ldi	r24, 0x00	; 0
    1c4a:	90 e0       	ldi	r25, 0x00	; 0
    1c4c:	62 e4       	ldi	r22, 0x42	; 66
    1c4e:	4a d2       	rcall	.+1172   	; 0x20e4 <__data_load_end+0x7a>
    EEPROM_INT_write(STARTTIME_HOUR_ADDR,9); // 9:00am
    1c50:	81 e0       	ldi	r24, 0x01	; 1
    1c52:	90 e0       	ldi	r25, 0x00	; 0
    1c54:	69 e0       	ldi	r22, 0x09	; 9
    1c56:	46 d2       	rcall	.+1164   	; 0x20e4 <__data_load_end+0x7a>
    EEPROM_INT_write(STARTTIME_HOUR_ADDR+1,0); 
    1c58:	82 e0       	ldi	r24, 0x02	; 2
    1c5a:	90 e0       	ldi	r25, 0x00	; 0
    1c5c:	60 e0       	ldi	r22, 0x00	; 0
    1c5e:	42 d2       	rcall	.+1156   	; 0x20e4 <__data_load_end+0x7a>
    
    EEPROM_INT_write(STOPTIME_HOUR_ADDR,18); // 18:00
    1c60:	83 e0       	ldi	r24, 0x03	; 3
    1c62:	90 e0       	ldi	r25, 0x00	; 0
    1c64:	62 e1       	ldi	r22, 0x12	; 18
    1c66:	3e d2       	rcall	.+1148   	; 0x20e4 <__data_load_end+0x7a>
    EEPROM_INT_write(STOPTIME_HOUR_ADDR+1,0);     
    1c68:	84 e0       	ldi	r24, 0x04	; 4
    1c6a:	90 e0       	ldi	r25, 0x00	; 0
    1c6c:	60 e0       	ldi	r22, 0x00	; 0
    1c6e:	3a d2       	rcall	.+1140   	; 0x20e4 <__data_load_end+0x7a>
  }
}
    1c70:	08 95       	ret

00001c72 <InitHW>:

//****************************************
// InitHW()  Initialize Hardware Registers
//****************************************
void InitHW(void)
{
    1c72:	ef 92       	push	r14
    1c74:	ff 92       	push	r15
    1c76:	1f 93       	push	r17
  TCCR1A  = 0x81;         // define timer1 as 8-bit PWM  
    1c78:	81 e8       	ldi	r24, 0x81	; 129
    1c7a:	80 93 80 00 	sts	0x0080, r24

  TIFR1 = (1<<TOV1);      // Counter1 overflow Flag
    1c7e:	11 e0       	ldi	r17, 0x01	; 1
    1c80:	16 bb       	out	0x16, r17	; 22
  TIMSK1   = (1<<TOIE1);  // enable counter1 overflow interrupt
    1c82:	10 93 6f 00 	sts	0x006F, r17
  
  TCNT1   = 0x00;         // set counter1 to zero      
    1c86:	10 92 85 00 	sts	0x0085, r1
    1c8a:	10 92 84 00 	sts	0x0084, r1
  TCCR1B  = 0x00;         // PWM disabLED
    1c8e:	81 e8       	ldi	r24, 0x81	; 129
    1c90:	e8 2e       	mov	r14, r24
    1c92:	f1 2c       	mov	r15, r1
    1c94:	d7 01       	movw	r26, r14
    1c96:	1c 92       	st	X, r1

  PORTC   = 0x00;         // Prepare Port C as analog input
    1c98:	18 b8       	out	0x08, r1	; 8
  DDRC    = 0x00;         // with no pull-ups
    1c9a:	17 b8       	out	0x07, r1	; 7
  
  PORTB   = 0xFF;         // Turn of Leds on Port B
    1c9c:	8f ef       	ldi	r24, 0xFF	; 255
    1c9e:	85 b9       	out	0x05, r24	; 5
  DDRB    = 0xFF;         // Set PORTB as output                    
    1ca0:	84 b9       	out	0x04, r24	; 4
 
  ADCSRA   = 0x96;         // Single A/D conversion, fCK/64 
    1ca2:	86 e9       	ldi	r24, 0x96	; 150
    1ca4:	80 93 7a 00 	sts	0x007A, r24

  // Init the LED's pins
  LED_PORT_DDR = LED_PORT_DDR | (1<<LED_GREEN_PIN) |(1<<LED_YELLOW_PIN);
    1ca8:	84 b1       	in	r24, 0x04	; 4
    1caa:	80 6c       	ori	r24, 0xC0	; 192
    1cac:	84 b9       	out	0x04, r24	; 4
  
  i2cInit();
    1cae:	cd d5       	rcall	.+2970   	; 0x284a <__data_load_end+0x7e0>
  uartInit();
    1cb0:	90 d8       	rcall	.-3808   	; 0xdd2 <uartInit>
  uartSetBaudRate(19200);
    1cb2:	60 e0       	ldi	r22, 0x00	; 0
    1cb4:	7b e4       	ldi	r23, 0x4B	; 75
    1cb6:	80 e0       	ldi	r24, 0x00	; 0
    1cb8:	90 e0       	ldi	r25, 0x00	; 0
    1cba:	9a d8       	rcall	.-3788   	; 0xdf0 <uartSetBaudRate>
	rprintfInit(uartSendChar);  
    1cbc:	82 e2       	ldi	r24, 0x22	; 34
    1cbe:	97 e0       	ldi	r25, 0x07	; 7
    1cc0:	e3 d6       	rcall	.+3526   	; 0x2a88 <__data_load_end+0xa1e>
//****************************************
// Set_Pwm() 
//****************************************
void Set_Pwm(unsigned int data)                         
{
  OCR1A = data;
    1cc2:	e8 e8       	ldi	r30, 0x88	; 136
    1cc4:	f0 e0       	ldi	r31, 0x00	; 0
    1cc6:	11 82       	std	Z+1, r1	; 0x01
    1cc8:	10 82       	st	Z, r1
//****************************************
// Pwm_on() 
//****************************************
void Pwm_on(void)                         
{
  TCCR1B = (1<< CS10);         // 
    1cca:	d7 01       	movw	r26, r14
    1ccc:	1c 93       	st	X, r17
//****************************************
// Set_Pwm() 
//****************************************
void Set_Pwm(unsigned int data)                         
{
  OCR1A = data;
    1cce:	11 82       	std	Z+1, r1	; 0x01
    1cd0:	10 82       	st	Z, r1
    
  Set_Pwm(0);
  Pwm_on();    
  Set_Pwm(0);
  
  LED_OFF_ALL;
    1cd2:	85 b1       	in	r24, 0x05	; 5
    1cd4:	8f 73       	andi	r24, 0x3F	; 63
    1cd6:	85 b9       	out	0x05, r24	; 5
  //LED_ON_GREEN;
  
}
    1cd8:	1f 91       	pop	r17
    1cda:	ff 90       	pop	r15
    1cdc:	ef 90       	pop	r14
    1cde:	08 95       	ret

00001ce0 <main>:
  
//**************************************************
// The Main Entry Point into the program
//**************************************************
int main(void)
{
    1ce0:	0f 93       	push	r16
    1ce2:	1f 93       	push	r17
    1ce4:	cf 93       	push	r28
    1ce6:	df 93       	push	r29
	wdt_disable();  		
    1ce8:	18 e1       	ldi	r17, 0x18	; 24
    1cea:	0f b6       	in	r0, 0x3f	; 63
    1cec:	f8 94       	cli
    1cee:	10 93 60 00 	sts	0x0060, r17
    1cf2:	10 92 60 00 	sts	0x0060, r1
    1cf6:	0f be       	out	0x3f, r0	; 63
  InitHW(); 
    1cf8:	bc df       	rcall	.-136    	; 0x1c72 <InitHW>
  LED_ON_GREEN;
    1cfa:	2e 9a       	sbi	0x05, 6	; 5
  LED_ON_YELLOW;
    1cfc:	2f 9a       	sbi	0x05, 7	; 5
  Init_Settings();  
    1cfe:	a1 df       	rcall	.-190    	; 0x1c42 <Init_Settings>
  //sei();    

	lcdInit();
    1d00:	79 d5       	rcall	.+2802   	; 0x27f4 <__data_load_end+0x78a>
	lcdHome();
    1d02:	42 d5       	rcall	.+2692   	; 0x2788 <__data_load_end+0x71e>
	//lcdClear();  
    
  Comms_Master_SPI_Init();
    1d04:	3c da       	rcall	.-2952   	; 0x117e <Comms_Master_SPI_Init>
  LED_OFF_GREEN;
    1d06:	2e 98       	cbi	0x05, 6	; 5
  LED_OFF_YELLOW;
    1d08:	2f 98       	cbi	0x05, 7	; 5
	wdt_disable();  		
    1d0a:	0f b6       	in	r0, 0x3f	; 63
    1d0c:	f8 94       	cli
    1d0e:	10 93 60 00 	sts	0x0060, r17
    1d12:	10 92 60 00 	sts	0x0060, r1
    1d16:	0f be       	out	0x3f, r0	; 63
//	lcdprintat(2,1,"-line2-");         
//	while(1);
	
  // REad the TIme from EEPROM
	#ifndef FEEVERBEEPER_TEST
		wdt_enable(WDTO_2S);  		
    1d18:	2f e0       	ldi	r18, 0x0F	; 15
    1d1a:	88 e1       	ldi	r24, 0x18	; 24
    1d1c:	90 e0       	ldi	r25, 0x00	; 0
    1d1e:	0f b6       	in	r0, 0x3f	; 63
    1d20:	f8 94       	cli
    1d22:	a8 95       	wdr
    1d24:	80 93 60 00 	sts	0x0060, r24
    1d28:	0f be       	out	0x3f, r0	; 63
    1d2a:	20 93 60 00 	sts	0x0060, r18
  #endif
    

        
  sei();
    1d2e:	78 94       	sei
	#ifdef FEEVERBEEPER_TEST
		FeeverBeeper_Test();
  #endif

  #ifdef SLAVE_COMMS	
	VirginSlaveSetTime = 1;
    1d30:	81 e0       	ldi	r24, 0x01	; 1
    1d32:	80 93 58 02 	sts	0x0258, r24
    1d36:	00 e0       	ldi	r16, 0x00	; 0
    1d38:	10 e0       	ldi	r17, 0x00	; 0
    1d3a:	08 c0       	rjmp	.+16     	; 0x1d4c <main+0x6c>
		RxSerial.MessageReady_flag = 0;
		SlaveCharger_UpdateTime();
		reboottime_cnt++;		
     }		
	 // Wait for the Master here
	 Wait(500);
    1d3c:	84 ef       	ldi	r24, 0xF4	; 244
    1d3e:	91 e0       	ldi	r25, 0x01	; 1
    1d40:	bc d1       	rcall	.+888    	; 0x20ba <__data_load_end+0x50>
	 loopcnt++;
    1d42:	1f 5f       	subi	r17, 0xFF	; 255
	VirginSlaveSetTime = 1;
	//Time_settime(00,00,00);                              
	// Wait here for the time to be received from the master
	u08 reboottime_cnt = 0;
	u08 loopcnt = 0;
	while ((loopcnt <50) && (reboottime_cnt <3))
    1d44:	12 33       	cpi	r17, 0x32	; 50
    1d46:	81 f0       	breq	.+32     	; 0x1d68 <main+0x88>
    1d48:	03 30       	cpi	r16, 0x03	; 3
    1d4a:	b0 f4       	brcc	.+44     	; 0x1d78 <main+0x98>
	{
	 if(RxSerial.MessageReady_flag)
    1d4c:	80 91 db 01 	lds	r24, 0x01DB
    1d50:	88 23       	and	r24, r24
    1d52:	a1 f3       	breq	.-24     	; 0x1d3c <main+0x5c>
	 {
		RxSerial.MessageReady_flag = 0;
    1d54:	10 92 db 01 	sts	0x01DB, r1
		SlaveCharger_UpdateTime();
    1d58:	b1 de       	rcall	.-670    	; 0x1abc <SlaveCharger_UpdateTime>
		reboottime_cnt++;		
    1d5a:	0f 5f       	subi	r16, 0xFF	; 255
     }		
	 // Wait for the Master here
	 Wait(500);
    1d5c:	84 ef       	ldi	r24, 0xF4	; 244
    1d5e:	91 e0       	ldi	r25, 0x01	; 1
    1d60:	ac d1       	rcall	.+856    	; 0x20ba <__data_load_end+0x50>
	 loopcnt++;
    1d62:	1f 5f       	subi	r17, 0xFF	; 255
	VirginSlaveSetTime = 1;
	//Time_settime(00,00,00);                              
	// Wait here for the time to be received from the master
	u08 reboottime_cnt = 0;
	u08 loopcnt = 0;
	while ((loopcnt <50) && (reboottime_cnt <3))
    1d64:	12 33       	cpi	r17, 0x32	; 50
    1d66:	81 f7       	brne	.-32     	; 0x1d48 <main+0x68>
	 Wait(500);
	 loopcnt++;
	}
	// There is no Master in the System, 
	// go to manual time setting mode
	if(reboottime_cnt <3)
    1d68:	03 30       	cpi	r16, 0x03	; 3
    1d6a:	30 f4       	brcc	.+12     	; 0x1d78 <main+0x98>
	{
		VirginSlaveSetTime = 1;
    1d6c:	81 e0       	ldi	r24, 0x01	; 1
    1d6e:	80 93 58 02 	sts	0x0258, r24
		MasterTimePresent = 0;
    1d72:	10 92 4b 02 	sts	0x024B, r1
    1d76:	05 c0       	rjmp	.+10     	; 0x1d82 <main+0xa2>
	}
	else
	{
		VirginSlaveSetTime = 0;
    1d78:	10 92 58 02 	sts	0x0258, r1
		MasterTimePresent = 1;
    1d7c:	81 e0       	ldi	r24, 0x01	; 1
    1d7e:	80 93 4b 02 	sts	0x024B, r24
//****************************************
// Set_Pwm() 
//****************************************
void Set_Pwm(unsigned int data)                         
{
  OCR1A = data;
    1d82:	c2 e0       	ldi	r28, 0x02	; 2
    1d84:	d0 e0       	ldi	r29, 0x00	; 0
//****************************************
// Pwm_on() 
//****************************************
void Pwm_on(void)                         
{
  TCCR1B = (1<< CS10);         // 
    1d86:	01 e0       	ldi	r16, 0x01	; 1
    1d88:	21 c0       	rjmp	.+66     	; 0x1dcc <main+0xec>
  // Determine if the MISO pin is being pulled low
  // Returns 1 : pack connected 0: no pack connected
  //**************************************************  
  u08 Check_Pack_Connected(void)
  {
    if(COMMS_SPI_MISO_READ == 0)
    1d8a:	1c 99       	sbic	0x03, 4	; 3
    1d8c:	09 c0       	rjmp	.+18     	; 0x1da0 <main+0xc0>
		Constant_Current(450,7614,840,41); // 300mA 7.4V Upper voltage limit                                
	#else
		
    if(Check_Pack_Connected())
    {
        lcdClear();
    1d8e:	00 d5       	rcall	.+2560   	; 0x2790 <__data_load_end+0x726>
        lcdprintat(2,0,"-Connected-");         
    1d90:	82 e0       	ldi	r24, 0x02	; 2
    1d92:	60 e0       	ldi	r22, 0x00	; 0
    1d94:	4b e5       	ldi	r20, 0x5B	; 91
    1d96:	51 e0       	ldi	r21, 0x01	; 1
    1d98:	06 d2       	rcall	.+1036   	; 0x21a6 <__data_load_end+0x13c>
        if(Comms_Send_Hello_Pack() == 0)
    1d9a:	23 db       	rcall	.-2490   	; 0x13e2 <Comms_Send_Hello_Pack>
    1d9c:	88 23       	and	r24, r24
    1d9e:	a1 f1       	breq	.+104    	; 0x1e08 <main+0x128>
        }  
    }
	#endif // SLA_CdHARGER
    //Menu_Change(MENU_TIME);
	#ifdef SLAVE_COMMS		
		if((MasterTimePresent == 0) && (VirginSlaveSetTime == 1))
    1da0:	80 91 4b 02 	lds	r24, 0x024B
    1da4:	88 23       	and	r24, r24
    1da6:	21 f4       	brne	.+8      	; 0x1db0 <main+0xd0>
    1da8:	80 91 58 02 	lds	r24, 0x0258
    1dac:	81 30       	cpi	r24, 0x01	; 1
    1dae:	41 f1       	breq	.+80     	; 0x1e00 <main+0x120>
		{
			Menu_Change(MENU_SET_TIME);
			VirginSlaveSetTime = 0;
		}
		else
			Menu_Change(MENU_TIME);
    1db0:	80 e0       	ldi	r24, 0x00	; 0
    1db2:	10 d2       	rcall	.+1056   	; 0x21d4 <__data_load_end+0x16a>
	#endif
	
    Menu_Show();
    1db4:	e8 d3       	rcall	.+2000   	; 0x2586 <__data_load_end+0x51c>
volatile u16 gFAST_CURRENT_MAX;
volatile u16 gFAST_VOLTAGE_TERMINATE;

void Waiter(u16 wt)
{
    SystemTimers.us_tick=0;
    1db6:	10 92 c0 01 	sts	0x01C0, r1
    1dba:	10 92 bf 01 	sts	0x01BF, r1
    while(SystemTimers.us_tick< wt)
    1dbe:	80 91 bf 01 	lds	r24, 0x01BF
    1dc2:	90 91 c0 01 	lds	r25, 0x01C0
    1dc6:	8f 5f       	subi	r24, 0xFF	; 255
    1dc8:	91 40       	sbci	r25, 0x01	; 1
    1dca:	80 f0       	brcs	.+32     	; 0x1dec <main+0x10c>
	}
  #endif 
  
  while(1)
  {   
    wdt_reset();
    1dcc:	a8 95       	wdr
//****************************************
// Set_Pwm() 
//****************************************
void Set_Pwm(unsigned int data)                         
{
  OCR1A = data;
    1dce:	d0 93 89 00 	sts	0x0089, r29
    1dd2:	c0 93 88 00 	sts	0x0088, r28
//****************************************
// Pwm_on() 
//****************************************
void Pwm_on(void)                         
{
  TCCR1B = (1<< CS10);         // 
    1dd6:	00 93 81 00 	sts	0x0081, r16
	
	// To just provide some voltage for very flat packs
	Set_Pwm(2);
	Pwm_on();	
	
    Comms_Master_SPI_Init(); 
    1dda:	d1 d9       	rcall	.-3166   	; 0x117e <Comms_Master_SPI_Init>
	#ifdef SLAVE_COMMS
	 if(RxSerial.MessageReady_flag)
    1ddc:	80 91 db 01 	lds	r24, 0x01DB
    1de0:	88 23       	and	r24, r24
    1de2:	99 f2       	breq	.-90     	; 0x1d8a <main+0xaa>
	 {
		RxSerial.MessageReady_flag = 0;
    1de4:	10 92 db 01 	sts	0x01DB, r1
		SlaveCharger_UpdateTime();
    1de8:	69 de       	rcall	.-814    	; 0x1abc <SlaveCharger_UpdateTime>
    1dea:	cf cf       	rjmp	.-98     	; 0x1d8a <main+0xaa>
void Waiter(u16 wt)
{
    SystemTimers.us_tick=0;
    while(SystemTimers.us_tick< wt)
    {
      asm volatile("nop\n\t");
    1dec:	00 00       	nop
      wdt_reset();
    1dee:	a8 95       	wdr
volatile u16 gFAST_VOLTAGE_TERMINATE;

void Waiter(u16 wt)
{
    SystemTimers.us_tick=0;
    while(SystemTimers.us_tick< wt)
    1df0:	80 91 bf 01 	lds	r24, 0x01BF
    1df4:	90 91 c0 01 	lds	r25, 0x01C0
    1df8:	8f 5f       	subi	r24, 0xFF	; 255
    1dfa:	91 40       	sbci	r25, 0x01	; 1
    1dfc:	38 f7       	brcc	.-50     	; 0x1dcc <main+0xec>
    1dfe:	f6 cf       	rjmp	.-20     	; 0x1dec <main+0x10c>
	#endif // SLA_CdHARGER
    //Menu_Change(MENU_TIME);
	#ifdef SLAVE_COMMS		
		if((MasterTimePresent == 0) && (VirginSlaveSetTime == 1))
		{
			Menu_Change(MENU_SET_TIME);
    1e00:	e9 d1       	rcall	.+978    	; 0x21d4 <__data_load_end+0x16a>
			VirginSlaveSetTime = 0;
    1e02:	10 92 58 02 	sts	0x0258, r1
    1e06:	d6 cf       	rjmp	.-84     	; 0x1db4 <main+0xd4>
    {
        lcdClear();
        lcdprintat(2,0,"-Connected-");         
        if(Comms_Send_Hello_Pack() == 0)
        { 
          lcdClear();
    1e08:	c3 d4       	rcall	.+2438   	; 0x2790 <__data_load_end+0x726>
          lcdprintat(0,0,"-Communicating-");     
    1e0a:	80 e0       	ldi	r24, 0x00	; 0
    1e0c:	60 e0       	ldi	r22, 0x00	; 0
    1e0e:	47 e6       	ldi	r20, 0x67	; 103
    1e10:	51 e0       	ldi	r21, 0x01	; 1
    1e12:	c9 d1       	rcall	.+914    	; 0x21a6 <__data_load_end+0x13c>
         // Get All the Pack info
         if(Comms_Get_PackInfo() == 0)
    1e14:	be de       	rcall	.-644    	; 0x1b92 <Comms_Get_PackInfo>
    1e16:	88 23       	and	r24, r24
    1e18:	09 f0       	breq	.+2      	; 0x1e1c <main+0x13c>
    1e1a:	c2 cf       	rjmp	.-124    	; 0x1da0 <main+0xc0>
         {
            u08 complete = 0;
            //Comms_Update_PackInfo_Time();
            //Menu_Change(MENU_PACKINFO);
            //Menu_Show(); 
            Charging_Menu = 0;
    1e1c:	10 92 b6 01 	sts	0x01B6, r1
            //while(Kbd_Scan() == NO_KEY);  
            switch(PackInfo.PackType)
    1e20:	80 91 59 02 	lds	r24, 0x0259
    1e24:	81 30       	cpi	r24, 0x01	; 1
    1e26:	09 f4       	brne	.+2      	; 0x1e2a <main+0x14a>
    1e28:	4f c0       	rjmp	.+158    	; 0x1ec8 <main+0x1e8>
    1e2a:	82 30       	cpi	r24, 0x02	; 2
    1e2c:	09 f4       	brne	.+2      	; 0x1e30 <main+0x150>
    1e2e:	42 c0       	rjmp	.+132    	; 0x1eb4 <main+0x1d4>
    1e30:	15 e4       	ldi	r17, 0x45	; 69
//****************************************
// Set_Pwm() 
//****************************************
void Set_Pwm(unsigned int data)                         
{
  OCR1A = data;
    1e32:	10 92 89 00 	sts	0x0089, r1
    1e36:	10 92 88 00 	sts	0x0088, r1
                complete = UNKNOWN_PACKTYPE;
              break;
            }
                
              Set_Pwm(0);                
              LED_OFF_GREEN;
    1e3a:	2e 98       	cbi	0x05, 6	; 5
              LED_OFF_YELLOW;          
    1e3c:	2f 98       	cbi	0x05, 7	; 5
              lcdClear();
    1e3e:	a8 d4       	rcall	.+2384   	; 0x2790 <__data_load_end+0x726>
              switch(complete)
    1e40:	12 34       	cpi	r17, 0x42	; 66
    1e42:	09 f4       	brne	.+2      	; 0x1e46 <main+0x166>
    1e44:	44 c0       	rjmp	.+136    	; 0x1ece <main+0x1ee>
    1e46:	13 34       	cpi	r17, 0x43	; 67
    1e48:	58 f5       	brcc	.+86     	; 0x1ea0 <main+0x1c0>
    1e4a:	10 34       	cpi	r17, 0x40	; 64
    1e4c:	09 f4       	brne	.+2      	; 0x1e50 <main+0x170>
    1e4e:	4b c0       	rjmp	.+150    	; 0x1ee6 <main+0x206>
    1e50:	11 34       	cpi	r17, 0x41	; 65
    1e52:	09 f4       	brne	.+2      	; 0x1e56 <main+0x176>
                  lcdprintat(1,0,"Fully Charged"); 
                  Comms_Inc_RechargeCount();
                break;
                case CHARGECOMPLETE_TIME:
                  //lcdprintat(1,0,"Fully Charged"); 
                  Comms_Inc_RechargeCount();                  
    1e54:	9b db       	rcall	.-2250   	; 0x158c <Comms_Inc_RechargeCount>
                case CHARGECOMPLETE_COMMS_FAILURE:
                  lcdprintat(1,0,"*Comms Failure*"); 
                break;                  
                              
              }
            Comms_Get_RechargeCount();
    1e56:	74 db       	rcall	.-2328   	; 0x1540 <Comms_Get_RechargeCount>
            lcdprintat(0,1,"RC");                  
    1e58:	80 e0       	ldi	r24, 0x00	; 0
    1e5a:	61 e0       	ldi	r22, 0x01	; 1
    1e5c:	41 eb       	ldi	r20, 0xB1	; 177
    1e5e:	51 e0       	ldi	r21, 0x01	; 1
    1e60:	a2 d1       	rcall	.+836    	; 0x21a6 <__data_load_end+0x13c>
            lcdprint_dec_u16(PackInfo.RechargeNo);
    1e62:	80 91 5c 02 	lds	r24, 0x025C
    1e66:	90 91 5d 02 	lds	r25, 0x025D
    1e6a:	4b d1       	rcall	.+662    	; 0x2102 <__data_load_end+0x98>
              
            Menu_Display_TimeDigits(7,1,PackInfo.ChargeTime.hours,PackInfo.ChargeTime.minutes);              
    1e6c:	87 e0       	ldi	r24, 0x07	; 7
    1e6e:	61 e0       	ldi	r22, 0x01	; 1
    1e70:	40 91 90 02 	lds	r20, 0x0290
    1e74:	20 91 8f 02 	lds	r18, 0x028F
    1e78:	b0 d1       	rcall	.+864    	; 0x21da <__data_load_end+0x170>
            // Battery Pack Temperature
                  
            lcdGotoXY(13,1);
    1e7a:	8d e0       	ldi	r24, 0x0D	; 13
    1e7c:	61 e0       	ldi	r22, 0x01	; 1
    1e7e:	6d d4       	rcall	.+2266   	; 0x275a <__data_load_end+0x6f0>
            lcdprint_dec_u08(PackInfo.Temperature_deg,1); 
    1e80:	80 91 60 02 	lds	r24, 0x0260
    1e84:	61 e0       	ldi	r22, 0x01	; 1
    1e86:	4b d1       	rcall	.+662    	; 0x211e <__data_load_end+0xb4>
            lcdprint("ß");                  // Degree Sign
    1e88:	84 eb       	ldi	r24, 0xB4	; 180
    1e8a:	91 e0       	ldi	r25, 0x01	; 1
    1e8c:	7e d1       	rcall	.+764    	; 0x218a <__data_load_end+0x120>
            // Charge Time
            
            
            // Wait for the Pack to be UnPLugged
            while(Kbd_Scan() == NO_KEY);
    1e8e:	b5 d3       	rcall	.+1898   	; 0x25fa <__data_load_end+0x590>
    1e90:	88 23       	and	r24, r24
    1e92:	e9 f3       	breq	.-6      	; 0x1e8e <main+0x1ae>
            LED_OFF_GREEN;           
    1e94:	2e 98       	cbi	0x05, 6	; 5
			RxSerial.MessageReady_flag = 0; // CLear any Time messages that were waiting
    1e96:	10 92 db 01 	sts	0x01DB, r1
            Menu_Change(MENU_TIME);            
    1e9a:	80 e0       	ldi	r24, 0x00	; 0
    1e9c:	9b d1       	rcall	.+822    	; 0x21d4 <__data_load_end+0x16a>
    1e9e:	80 cf       	rjmp	.-256    	; 0x1da0 <main+0xc0>
                
              Set_Pwm(0);                
              LED_OFF_GREEN;
              LED_OFF_YELLOW;          
              lcdClear();
              switch(complete)
    1ea0:	14 34       	cpi	r17, 0x44	; 68
    1ea2:	d9 f0       	breq	.+54     	; 0x1eda <main+0x1fa>
    1ea4:	15 34       	cpi	r17, 0x45	; 69
    1ea6:	b9 f6       	brne	.-82     	; 0x1e56 <main+0x176>
              {
                case UNKNOWN_PACKTYPE:
                  lcdprintat(2,0,"Unknown Pack"); 
    1ea8:	82 e0       	ldi	r24, 0x02	; 2
    1eaa:	60 e0       	ldi	r22, 0x00	; 0
    1eac:	47 e7       	ldi	r20, 0x77	; 119
    1eae:	51 e0       	ldi	r21, 0x01	; 1
    1eb0:	7a d1       	rcall	.+756    	; 0x21a6 <__data_load_end+0x13c>
    1eb2:	d1 cf       	rjmp	.-94     	; 0x1e56 <main+0x176>
              case PACKTYPE_ST:
                complete = Constant_Current(900,7614,720,41); // 300mA 7.4V Upper voltage limit                                
              break;

              case PACKTYPE_MB:
                complete = Constant_Current(1500,7614 ,720,41); // 300mA per Pack 7.4V Upper voltage limit                  
    1eb4:	8c ed       	ldi	r24, 0xDC	; 220
    1eb6:	95 e0       	ldi	r25, 0x05	; 5
    1eb8:	6e eb       	ldi	r22, 0xBE	; 190
    1eba:	7d e1       	ldi	r23, 0x1D	; 29
    1ebc:	40 ed       	ldi	r20, 0xD0	; 208
    1ebe:	52 e0       	ldi	r21, 0x02	; 2
    1ec0:	29 e2       	ldi	r18, 0x29	; 41
    1ec2:	5f dc       	rcall	.-1858   	; 0x1782 <Constant_Current>
    1ec4:	18 2f       	mov	r17, r24
    1ec6:	b5 cf       	rjmp	.-150    	; 0x1e32 <main+0x152>
            Charging_Menu = 0;
            //while(Kbd_Scan() == NO_KEY);  
            switch(PackInfo.PackType)
            {
              case PACKTYPE_ST:
                complete = Constant_Current(900,7614,720,41); // 300mA 7.4V Upper voltage limit                                
    1ec8:	84 e8       	ldi	r24, 0x84	; 132
    1eca:	93 e0       	ldi	r25, 0x03	; 3
    1ecc:	f5 cf       	rjmp	.-22     	; 0x1eb8 <main+0x1d8>
                case CHARGECOMPLETE_TIME:
                  //lcdprintat(1,0,"Fully Charged"); 
                  Comms_Inc_RechargeCount();                  
                break;
                case CHARGECOMPLETE_PACKDISCONNECTED_CURRENT:
                  lcdprintat(0,0,"Pack Unplugged");                 
    1ece:	80 e0       	ldi	r24, 0x00	; 0
    1ed0:	60 e0       	ldi	r22, 0x00	; 0
    1ed2:	42 e9       	ldi	r20, 0x92	; 146
    1ed4:	51 e0       	ldi	r21, 0x01	; 1
    1ed6:	67 d1       	rcall	.+718    	; 0x21a6 <__data_load_end+0x13c>
    1ed8:	be cf       	rjmp	.-132    	; 0x1e56 <main+0x176>
                 break;
                //case CHARGECOMPLETE_PACKDISCONNECTED_COMMS:                
                  //lcdprintat(0,0,"Pack Unplugged C"); 
                //break;  
                case CHARGECOMPLETE_COMMS_FAILURE:
                  lcdprintat(1,0,"*Comms Failure*"); 
    1eda:	81 e0       	ldi	r24, 0x01	; 1
    1edc:	60 e0       	ldi	r22, 0x00	; 0
    1ede:	41 ea       	ldi	r20, 0xA1	; 161
    1ee0:	51 e0       	ldi	r21, 0x01	; 1
    1ee2:	61 d1       	rcall	.+706    	; 0x21a6 <__data_load_end+0x13c>
    1ee4:	b8 cf       	rjmp	.-144    	; 0x1e56 <main+0x176>
              {
                case UNKNOWN_PACKTYPE:
                  lcdprintat(2,0,"Unknown Pack"); 
                break;
                case CHARGECOMPLETE_TEMPERATURE:
                  LED_ON_GREEN;                
    1ee6:	2e 9a       	sbi	0x05, 6	; 5
                  lcdprintat(1,0,"Fully Charged"); 
    1ee8:	81 e0       	ldi	r24, 0x01	; 1
    1eea:	60 e0       	ldi	r22, 0x00	; 0
    1eec:	44 e8       	ldi	r20, 0x84	; 132
    1eee:	51 e0       	ldi	r21, 0x01	; 1
    1ef0:	5a d1       	rcall	.+692    	; 0x21a6 <__data_load_end+0x13c>
                  Comms_Inc_RechargeCount();
    1ef2:	4c db       	rcall	.-2408   	; 0x158c <Comms_Inc_RechargeCount>
    1ef4:	b0 cf       	rjmp	.-160    	; 0x1e56 <main+0x176>

00001ef6 <__udivmodqi4>:
    1ef6:	99 1b       	sub	r25, r25
    1ef8:	79 e0       	ldi	r23, 0x09	; 9
    1efa:	04 c0       	rjmp	.+8      	; 0x1f04 <__udivmodqi4_ep>

00001efc <__udivmodqi4_loop>:
    1efc:	99 1f       	adc	r25, r25
    1efe:	96 17       	cp	r25, r22
    1f00:	08 f0       	brcs	.+2      	; 0x1f04 <__udivmodqi4_ep>
    1f02:	96 1b       	sub	r25, r22

00001f04 <__udivmodqi4_ep>:
    1f04:	88 1f       	adc	r24, r24
    1f06:	7a 95       	dec	r23
    1f08:	c9 f7       	brne	.-14     	; 0x1efc <__udivmodqi4_loop>
    1f0a:	80 95       	com	r24
    1f0c:	08 95       	ret

00001f0e <__udivmodhi4>:
    1f0e:	aa 1b       	sub	r26, r26
    1f10:	bb 1b       	sub	r27, r27
    1f12:	51 e1       	ldi	r21, 0x11	; 17
    1f14:	07 c0       	rjmp	.+14     	; 0x1f24 <__udivmodhi4_ep>

00001f16 <__udivmodhi4_loop>:
    1f16:	aa 1f       	adc	r26, r26
    1f18:	bb 1f       	adc	r27, r27
    1f1a:	a6 17       	cp	r26, r22
    1f1c:	b7 07       	cpc	r27, r23
    1f1e:	10 f0       	brcs	.+4      	; 0x1f24 <__udivmodhi4_ep>
    1f20:	a6 1b       	sub	r26, r22
    1f22:	b7 0b       	sbc	r27, r23

00001f24 <__udivmodhi4_ep>:
    1f24:	88 1f       	adc	r24, r24
    1f26:	99 1f       	adc	r25, r25
    1f28:	5a 95       	dec	r21
    1f2a:	a9 f7       	brne	.-22     	; 0x1f16 <__udivmodhi4_loop>
    1f2c:	80 95       	com	r24
    1f2e:	90 95       	com	r25
    1f30:	bc 01       	movw	r22, r24
    1f32:	cd 01       	movw	r24, r26
    1f34:	08 95       	ret

00001f36 <__udivmodsi4>:
    1f36:	a1 e2       	ldi	r26, 0x21	; 33
    1f38:	1a 2e       	mov	r1, r26
    1f3a:	aa 1b       	sub	r26, r26
    1f3c:	bb 1b       	sub	r27, r27
    1f3e:	fd 01       	movw	r30, r26
    1f40:	0d c0       	rjmp	.+26     	; 0x1f5c <__udivmodsi4_ep>

00001f42 <__udivmodsi4_loop>:
    1f42:	aa 1f       	adc	r26, r26
    1f44:	bb 1f       	adc	r27, r27
    1f46:	ee 1f       	adc	r30, r30
    1f48:	ff 1f       	adc	r31, r31
    1f4a:	a2 17       	cp	r26, r18
    1f4c:	b3 07       	cpc	r27, r19
    1f4e:	e4 07       	cpc	r30, r20
    1f50:	f5 07       	cpc	r31, r21
    1f52:	20 f0       	brcs	.+8      	; 0x1f5c <__udivmodsi4_ep>
    1f54:	a2 1b       	sub	r26, r18
    1f56:	b3 0b       	sbc	r27, r19
    1f58:	e4 0b       	sbc	r30, r20
    1f5a:	f5 0b       	sbc	r31, r21

00001f5c <__udivmodsi4_ep>:
    1f5c:	66 1f       	adc	r22, r22
    1f5e:	77 1f       	adc	r23, r23
    1f60:	88 1f       	adc	r24, r24
    1f62:	99 1f       	adc	r25, r25
    1f64:	1a 94       	dec	r1
    1f66:	69 f7       	brne	.-38     	; 0x1f42 <__udivmodsi4_loop>
    1f68:	60 95       	com	r22
    1f6a:	70 95       	com	r23
    1f6c:	80 95       	com	r24
    1f6e:	90 95       	com	r25
    1f70:	9b 01       	movw	r18, r22
    1f72:	ac 01       	movw	r20, r24
    1f74:	bd 01       	movw	r22, r26
    1f76:	cf 01       	movw	r24, r30
    1f78:	08 95       	ret

00001f7a <__divmodsi4>:
    1f7a:	97 fb       	bst	r25, 7
    1f7c:	09 2e       	mov	r0, r25
    1f7e:	05 26       	eor	r0, r21
    1f80:	0e d0       	rcall	.+28     	; 0x1f9e <__divmodsi4_neg1>
    1f82:	57 fd       	sbrc	r21, 7
    1f84:	04 d0       	rcall	.+8      	; 0x1f8e <__divmodsi4_neg2>
    1f86:	d7 df       	rcall	.-82     	; 0x1f36 <__udivmodsi4>
    1f88:	0a d0       	rcall	.+20     	; 0x1f9e <__divmodsi4_neg1>
    1f8a:	00 1c       	adc	r0, r0
    1f8c:	38 f4       	brcc	.+14     	; 0x1f9c <__divmodsi4_exit>

00001f8e <__divmodsi4_neg2>:
    1f8e:	50 95       	com	r21
    1f90:	40 95       	com	r20
    1f92:	30 95       	com	r19
    1f94:	21 95       	neg	r18
    1f96:	3f 4f       	sbci	r19, 0xFF	; 255
    1f98:	4f 4f       	sbci	r20, 0xFF	; 255
    1f9a:	5f 4f       	sbci	r21, 0xFF	; 255

00001f9c <__divmodsi4_exit>:
    1f9c:	08 95       	ret

00001f9e <__divmodsi4_neg1>:
    1f9e:	f6 f7       	brtc	.-4      	; 0x1f9c <__divmodsi4_exit>
    1fa0:	90 95       	com	r25
    1fa2:	80 95       	com	r24
    1fa4:	70 95       	com	r23
    1fa6:	61 95       	neg	r22
    1fa8:	7f 4f       	sbci	r23, 0xFF	; 255
    1faa:	8f 4f       	sbci	r24, 0xFF	; 255
    1fac:	9f 4f       	sbci	r25, 0xFF	; 255
    1fae:	08 95       	ret

00001fb0 <_exit>:
    1fb0:	f8 94       	cli

00001fb2 <__stop_program>:
    1fb2:	ff cf       	rjmp	.-2      	; 0x1fb2 <__stop_program>
